
hvc-man-switch.axf:     file format elf32-littlearm


Disassembly of section .text:

f0000000 <vectors>:
	...
f0000008:	ea000006 	b	f0000028 <MON_OFFSET+0x28>
	...
f0000014:	ea000001 	b	f0000020 <MON_OFFSET+0x20>
	...
f0000020:	e10ee300 	mrs	lr, ELR_hyp
f0000024:	e1a0f00e 	mov	pc, lr
f0000028:	ee11af11 	mrc	15, 0, sl, cr1, cr1, {0}
f000002c:	e3caa07f 	bic	sl, sl, #127	; 0x7f
f0000030:	e59fb180 	ldr	fp, [pc, #384]	; f00001b8 <kernel_cmd_end+0x1>
f0000034:	e18aa00b 	orr	sl, sl, fp
f0000038:	ee01bf11 	mcr	15, 0, fp, cr1, cr1, {0}
f000003c:	f57ff06f 	isb	sy
f0000040:	e59fb174 	ldr	fp, [pc, #372]	; f00001bc <kernel_cmd_end+0x5>
f0000044:	ee8cbf10 	mcr	15, 4, fp, cr12, cr0, {0}
f0000048:	e1b0f00e 	movs	pc, lr

f000004c <start>:
f000004c:	ee100f31 	mrc	15, 0, r0, cr0, cr1, {1}
f0000050:	e1a00820 	lsr	r0, r0, #16
f0000054:	e2000001 	and	r0, r0, #1
f0000058:	0a000001 	beq	f0000064 <start+0x18>
f000005c:	e59f015c 	ldr	r0, [pc, #348]	; f00001c0 <kernel_cmd_end+0x9>
f0000060:	ee0e0f10 	mcr	15, 0, r0, cr14, cr0, {0}
f0000064:	ee104fb0 	mrc	15, 0, r4, cr0, cr0, {5}
f0000068:	e204400f 	and	r4, r4, #15
f000006c:	e59f0150 	ldr	r0, [pc, #336]	; f00001c4 <kernel_cmd_end+0xd>
f0000070:	e5901004 	ldr	r1, [r0, #4]
f0000074:	e3540000 	cmp	r4, #0
f0000078:	0201101f 	andeq	r1, r1, #31
f000007c:	13a01000 	movne	r1, #0
f0000080:	e2802080 	add	r2, r0, #128	; 0x80
f0000084:	e3e03000 	mvn	r3, #0
f0000088:	e5823000 	str	r3, [r2]
f000008c:	e2411001 	sub	r1, r1, #1
f0000090:	e2822004 	add	r2, r2, #4
f0000094:	e3710001 	cmn	r1, #1
f0000098:	1afffffa 	bne	f0000088 <start+0x3c>
f000009c:	e59f0124 	ldr	r0, [pc, #292]	; f00001c8 <kernel_cmd_end+0x11>
f00000a0:	e3a01080 	mov	r1, #128	; 0x80
f00000a4:	e5801004 	str	r1, [r0, #4]
f00000a8:	ee110f51 	mrc	15, 0, r0, cr1, cr1, {2}
f00000ac:	e59f1118 	ldr	r1, [pc, #280]	; f00001cc <kernel_cmd_end+0x15>
f00000b0:	e1800001 	orr	r0, r0, r1
f00000b4:	ee010f51 	mcr	15, 0, r0, cr1, cr1, {2}
f00000b8:	ee100fb0 	mrc	15, 0, r0, cr0, cr0, {5}
f00000bc:	e7df0c1f 	bfc	r0, #24, #8
f00000c0:	e3500000 	cmp	r0, #0
f00000c4:	0a00000e 	beq	f0000104 <start+0xb8>
f00000c8:	e59fa0ec 	ldr	sl, [pc, #236]	; f00001bc <kernel_cmd_end+0x5>
f00000cc:	ee0caf30 	mcr	15, 0, sl, cr12, cr0, {1}
f00000d0:	e1600070 	smc	0
f00000d4:	e1400070 	hvc	0
f00000d8:	e59f10f0 	ldr	r1, [pc, #240]	; f00001d0 <kernel_cmd_end+0x19>
f00000dc:	e28f200c 	add	r2, pc, #12
f00000e0:	e89200f8 	ldm	r2, {r3, r4, r5, r6, r7}
f00000e4:	e88100f8 	stm	r1, {r3, r4, r5, r6, r7}
f00000e8:	e59f00e4 	ldr	r0, [pc, #228]	; f00001d4 <kernel_cmd_end+0x1d>
f00000ec:	e1a0f001 	mov	pc, r1
f00000f0:	e320f002 	wfe
f00000f4:	e5901000 	ldr	r1, [r0]
f00000f8:	e3510000 	cmp	r1, #0
f00000fc:	0afffffb 	beq	f00000f0 <start+0xa4>
f0000100:	e1a0f001 	mov	pc, r1
f0000104:	e59f00cc 	ldr	r0, [pc, #204]	; f00001d8 <kernel_cmd_end+0x21>
f0000108:	e3a01010 	mov	r1, #16
f000010c:	e5801024 	str	r1, [r0, #36]	; 0x24
f0000110:	e3a01cc3 	mov	r1, #49920	; 0xc300
f0000114:	e3811001 	orr	r1, r1, #1
f0000118:	e5801030 	str	r1, [r0, #48]	; 0x30
f000011c:	e59fd0b8 	ldr	sp, [pc, #184]	; f00001dc <kernel_cmd_end+0x25>
f0000120:	eb000086 	bl	f0000340 <c_start>
f0000124:	eafffffe 	b	f0000124 <start+0xd8>

f0000128 <__semi_call>:
f0000128:	ef123456 	svc	0x00123456
f000012c:	e1a0f00e 	mov	pc, lr

f0000130 <kernel_cmd>:
f0000130:	736e6f63 	cmnvc	lr, #396	; 0x18c
f0000134:	3d656c6f 	stclcc	12, cr6, [r5, #-444]!	; 0xfffffe44
f0000138:	41797474 	cmnmi	r9, r4, ror r4
f000013c:	2030414d 	eorscs	r4, r0, sp, asr #2
f0000140:	3d6d656d 	cfstr64cc	mvdx6, [sp, #-436]!	; 0xfffffe4c
f0000144:	4d323135 	ldfmis	f3, [r2, #-212]!	; 0xffffff2c
f0000148:	6d656d20 	stclvs	13, cr6, [r5, #-128]!	; 0xffffff80
f000014c:	3231353d 	eorscc	r3, r1, #255852544	; 0xf400000
f0000150:	7830404d 	ldmdavc	r0!, {r0, r2, r3, r6, lr}
f0000154:	30303838 	eorscc	r3, r0, r8, lsr r8
f0000158:	30303030 	eorscc	r3, r0, r0, lsr r0
f000015c:	61652030 	cmnvs	r5, r0, lsr r0
f0000160:	70796c72 	rsbsvc	r6, r9, r2, ror ip
f0000164:	746e6972 	strbtvc	r6, [lr], #-2418	; 0x972
f0000168:	6f72206b 	svcvs	0x0072206b
f000016c:	2f3d746f 	svccs	0x003d746f
f0000170:	2f766564 	svccs	0x00766564
f0000174:	2073666e 	rsbscs	r6, r3, lr, ror #12
f0000178:	7273666e 	rsbsvc	r6, r3, #115343360	; 0x6e00000
f000017c:	3d746f6f 	ldclcc	15, cr6, [r4, #-444]!	; 0xfffffe44
f0000180:	2e323931 	mrccs	9, 1, r3, cr2, cr1, {1}
f0000184:	2e383631 	mrccs	6, 1, r3, cr8, cr1, {1}
f0000188:	30312e30 	eorscc	r2, r1, r0, lsr lr
f000018c:	732f3a30 	teqvc	pc, #196608	; 0x30000
f0000190:	6e2f7672 	mcrvs	6, 1, r7, cr15, cr2, {3}
f0000194:	6f727366 	svcvs	0x00727366
f0000198:	742c746f 	strtvc	r7, [ip], #-1135	; 0x46f
f000019c:	72207063 	eorvc	r7, r0, #99	; 0x63
f00001a0:	70692077 	rsbvc	r2, r9, r7, ror r0
f00001a4:	6368643d 	cmnvs	r8, #1023410176	; 0x3d000000
f00001a8:	666e2070 			; <UNDEFINED> instruction: 0x666e2070
f00001ac:	6f6f7273 	svcvs	0x006f7273
f00001b0:	62656474 	rsbvs	r6, r5, #1946157056	; 0x74000000
f00001b4:	00006775 	andeq	r6, r0, r5, ror r7

f00001b7 <kernel_cmd_end>:
f00001b7:	0001b100 	andeq	fp, r1, r0, lsl #2
f00001bb:	00000000 	andeq	r0, r0, r0
f00001bf:	6e3600f0 	mrcvs	0, 1, r0, cr6, cr0, {7}
f00001c3:	00100001 	andseq	r0, r0, r1
f00001c7:	0020002c 	eoreq	r0, r0, ip, lsr #32
f00001cb:	043fff2c 	ldrteq	pc, [pc], #-3884	; f00001d3 <kernel_cmd_end+0x1c>	; <UNPREDICTABLE>
f00001cf:	cfff0000 	svcgt	0x00ff0000
f00001d3:	01003080 	smlabbeq	r0, r0, r0, r3
f00001d7:	0900001c 	stmdbeq	r0, {r2, r3, r4}
f00001db:	0000001c 	andeq	r0, r0, ip, lsl r0
f00001df:	000000ff 	strdeq	r0, [r0], -pc	; <UNPREDICTABLE>

f00001e0 <monitor_vectors>:
	...
f00001e8:	ea000004 	b	f0000200 <handler_monitor_smc>
f00001ec:	00000000 	andeq	r0, r0, r0
f00001f0:	ea00001f 	b	f0000274 <handler_monitor_dabt>
f00001f4:	ea00000a 	b	f0000224 <handler_monitor_hvc>
	...

f0000200 <handler_monitor_smc>:
f0000200:	ee11af11 	mrc	15, 0, sl, cr1, cr1, {0}
f0000204:	e3caa07f 	bic	sl, sl, #127	; 0x7f
f0000208:	e59fb104 	ldr	fp, [pc, #260]	; f0000314 <__mon_enter_hyp+0x20>
f000020c:	e18aa00b 	orr	sl, sl, fp
f0000210:	ee01bf11 	mcr	15, 0, fp, cr1, cr1, {0}
f0000214:	f57ff06f 	isb	sy
f0000218:	e59fb0f8 	ldr	fp, [pc, #248]	; f0000318 <__mon_enter_hyp+0x24>
f000021c:	ee8cbf10 	mcr	15, 4, fp, cr12, cr0, {0}
f0000220:	e1b0f00e 	movs	pc, lr

f0000224 <handler_monitor_hvc>:
f0000224:	e92d6000 	push	{sp, lr}
f0000228:	e92d1fff 	push	{r0, r1, r2, r3, r4, r5, r6, r7, r8, r9, sl, fp, ip}
f000022c:	e14e0300 	mrs	r0, SPSR_hyp
f0000230:	e10e1300 	mrs	r1, ELR_hyp
f0000234:	e92d0003 	push	{r0, r1}
f0000238:	e1a0000d 	mov	r0, sp
f000023c:	eb000181 	bl	f0000848 <_hyp_hvc_service>
f0000240:	e3100001 	tst	r0, #1
f0000244:	1a000004 	bne	f000025c <handler_monitor_hvc+0x38>
f0000248:	e8bd0003 	pop	{r0, r1}
f000024c:	e16ef300 	msr	SPSR_hyp, r0
f0000250:	e12ef301 	msr	ELR_hyp, r1
f0000254:	e89d7fff 	ldm	sp, {r0, r1, r2, r3, r4, r5, r6, r7, r8, r9, sl, fp, ip, sp, lr}
f0000258:	e160006e 	eret
f000025c:	e8bd0003 	pop	{r0, r1}
f0000260:	e16ef300 	msr	SPSR_hyp, r0
f0000264:	e12ef301 	msr	ELR_hyp, r1
f0000268:	e89d7fff 	ldm	sp, {r0, r1, r2, r3, r4, r5, r6, r7, r8, r9, sl, fp, ip, sp, lr}
f000026c:	e10ee300 	mrs	lr, ELR_hyp
f0000270:	e1a0f00e 	mov	pc, lr

f0000274 <handler_monitor_dabt>:
f0000274:	e92d6000 	push	{sp, lr}
f0000278:	e92d1fff 	push	{r0, r1, r2, r3, r4, r5, r6, r7, r8, r9, sl, fp, ip}
f000027c:	e14e0300 	mrs	r0, SPSR_hyp
f0000280:	e10e1300 	mrs	r1, ELR_hyp
f0000284:	e92d0003 	push	{r0, r1}
f0000288:	e1a0000d 	mov	r0, sp
f000028c:	eb00016a 	bl	f000083c <_hyp_trap_dabort>
f0000290:	e8bd0003 	pop	{r0, r1}
f0000294:	e16ef300 	msr	SPSR_hyp, r0
f0000298:	e12ef301 	msr	ELR_hyp, r1
f000029c:	e89d7fff 	ldm	sp, {r0, r1, r2, r3, r4, r5, r6, r7, r8, r9, sl, fp, ip, sp, lr}
f00002a0:	e160006e 	eret

f00002a4 <__mon_switch_to_guest_context>:
f00002a4:	e8b04008 	ldm	r0!, {r3, lr}
f00002a8:	e3130000 	tst	r3, #0
f00002ac:	116ef303 	msrne	SPSR_hyp, r3
f00002b0:	e12ef30e 	msr	ELR_hyp, lr
f00002b4:	e8907fff 	ldm	r0, {r0, r1, r2, r3, r4, r5, r6, r7, r8, r9, sl, fp, ip, sp, lr}
f00002b8:	f57ff01f 	clrex
f00002bc:	e160006e 	eret

f00002c0 <__mon_install_hyp>:
f00002c0:	e92d4007 	push	{r0, r1, r2, lr}
f00002c4:	e59f0050 	ldr	r0, [pc, #80]	; f000031c <__mon_enter_hyp+0x28>
f00002c8:	e9201010 	stmdb	r0!, {r4, ip}
f00002cc:	e3a01000 	mov	r1, #0
f00002d0:	e59f2048 	ldr	r2, [pc, #72]	; f0000320 <__mon_enter_hyp+0x2c>
f00002d4:	e9200006 	stmdb	r0!, {r1, r2}
f00002d8:	e59f1044 	ldr	r1, [pc, #68]	; f0000324 <__mon_enter_hyp+0x30>
f00002dc:	e5810000 	str	r0, [r1]
f00002e0:	e8bd8007 	pop	{r0, r1, r2, pc}

f00002e4 <mon_init>:
f00002e4:	e92d4007 	push	{r0, r1, r2, lr}
f00002e8:	e59f1028 	ldr	r1, [pc, #40]	; f0000318 <__mon_enter_hyp+0x24>
f00002ec:	ee0c1f30 	mcr	15, 0, r1, cr12, cr0, {1}
f00002f0:	e8bd8007 	pop	{r0, r1, r2, pc}

f00002f4 <__mon_enter_hyp>:
f00002f4:	e59fa01c 	ldr	sl, [pc, #28]	; f0000318 <__mon_enter_hyp+0x24>
f00002f8:	ee0caf30 	mcr	15, 0, sl, cr12, cr0, {1}
f00002fc:	e1600070 	smc	0
f0000300:	e14fff7f 	hvc	65535	; 0xffff
f0000304:	e59fd01c 	ldr	sp, [pc, #28]	; f0000328 <__mon_enter_hyp+0x34>
f0000308:	ebffffec 	bl	f00002c0 <__mon_install_hyp>
f000030c:	eb0001c0 	bl	f0000a14 <hyp_main>
f0000310:	eafffffe 	b	f0000310 <__mon_enter_hyp+0x1c>
f0000314:	000001b1 			; <UNDEFINED> instruction: 0x000001b1
f0000318:	f00001e0 			; <UNDEFINED> instruction: 0xf00001e0
f000031c:	f0001ae8 			; <UNDEFINED> instruction: 0xf0001ae8
f0000320:	f0000a14 			; <UNDEFINED> instruction: 0xf0000a14
f0000324:	f0001af0 			; <UNDEFINED> instruction: 0xf0001af0
f0000328:	df000000 	svcle	0x00000000
f000032c:	e320f000 	nop	{0}
f0000330:	e320f000 	nop	{0}
f0000334:	e320f000 	nop	{0}
f0000338:	e320f000 	nop	{0}
f000033c:	e320f000 	nop	{0}

f0000340 <c_start>:
f0000340:	e30104e8 	movw	r0, #5352	; 0x14e8
f0000344:	e92d4008 	push	{r3, lr}
f0000348:	e34f0000 	movt	r0, #61440	; 0xf000
f000034c:	eb0001c8 	bl	f0000a74 <uart_print>
f0000350:	e30b0eaf 	movw	r0, #48815	; 0xbeaf
f0000354:	e34f000d 	movt	r0, #61453	; 0xf00d
f0000358:	eb0001d3 	bl	f0000aac <uart_print_hex32>
f000035c:	e30104fc 	movw	r0, #5372	; 0x14fc
f0000360:	e34f0000 	movt	r0, #61440	; 0xf000
f0000364:	eb0001c2 	bl	f0000a74 <uart_print>
f0000368:	ebffffdd 	bl	f00002e4 <mon_init>
f000036c:	e8bd4008 	pop	{r3, lr}
f0000370:	ea0001b9 	b	f0000a5c <mon_enter_hyp>

f0000374 <nrm_loop>:
f0000374:	e92d4038 	push	{r3, r4, r5, lr}
f0000378:	e59f0054 	ldr	r0, [pc, #84]	; f00003d4 <nrm_loop+0x60>
f000037c:	eb0001bc 	bl	f0000a74 <uart_print>
f0000380:	e10f5000 	mrs	r5, CPSR
f0000384:	e59f004c 	ldr	r0, [pc, #76]	; f00003d8 <nrm_loop+0x64>
f0000388:	e3a0400a 	mov	r4, #10
f000038c:	eb0001b8 	bl	f0000a74 <uart_print>
f0000390:	e1a00005 	mov	r0, r5
f0000394:	eb0001c4 	bl	f0000aac <uart_print_hex32>
f0000398:	e59f003c 	ldr	r0, [pc, #60]	; f00003dc <nrm_loop+0x68>
f000039c:	eb0001b4 	bl	f0000a74 <uart_print>
f00003a0:	e59f0038 	ldr	r0, [pc, #56]	; f00003e0 <nrm_loop+0x6c>
f00003a4:	eb0001b2 	bl	f0000a74 <uart_print>
f00003a8:	e14fff7e 	hvc	65534	; 0xfffe
f00003ac:	e59f0030 	ldr	r0, [pc, #48]	; f00003e4 <nrm_loop+0x70>
f00003b0:	eb0001af 	bl	f0000a74 <uart_print>
f00003b4:	e14fff7d 	hvc	65533	; 0xfffd
f00003b8:	e59f0028 	ldr	r0, [pc, #40]	; f00003e8 <nrm_loop+0x74>
f00003bc:	eb0001ac 	bl	f0000a74 <uart_print>
f00003c0:	e2544001 	subs	r4, r4, #1
f00003c4:	1afffff5 	bne	f00003a0 <nrm_loop+0x2c>
f00003c8:	e59f001c 	ldr	r0, [pc, #28]	; f00003ec <nrm_loop+0x78>
f00003cc:	e8bd4038 	pop	{r3, r4, r5, lr}
f00003d0:	ea0001a7 	b	f0000a74 <uart_print>
f00003d4:	f0001500 			; <UNDEFINED> instruction: 0xf0001500
f00003d8:	f0001510 			; <UNDEFINED> instruction: 0xf0001510
f00003dc:	f00014fc 			; <UNDEFINED> instruction: 0xf00014fc
f00003e0:	f000151c 			; <UNDEFINED> instruction: 0xf000151c
f00003e4:	f000152c 			; <UNDEFINED> instruction: 0xf000152c
f00003e8:	f000153c 			; <UNDEFINED> instruction: 0xf000153c
f00003ec:	f000154c 			; <UNDEFINED> instruction: 0xf000154c

f00003f0 <memcpy>:
f00003f0:	e3520000 	cmp	r2, #0
f00003f4:	012fff1e 	bxeq	lr
f00003f8:	e3a03000 	mov	r3, #0
f00003fc:	e7d1c003 	ldrb	ip, [r1, r3]
f0000400:	e7c0c003 	strb	ip, [r0, r3]
f0000404:	e2833001 	add	r3, r3, #1
f0000408:	e1530002 	cmp	r3, r2
f000040c:	1afffffa 	bne	f00003fc <memcpy+0xc>
f0000410:	e12fff1e 	bx	lr

f0000414 <memmove>:
f0000414:	e1500001 	cmp	r0, r1
f0000418:	8a000008 	bhi	f0000440 <memmove+0x2c>
f000041c:	e3520000 	cmp	r2, #0
f0000420:	13a03000 	movne	r3, #0
f0000424:	0a000012 	beq	f0000474 <memmove+0x60>
f0000428:	e7d1c003 	ldrb	ip, [r1, r3]
f000042c:	e7c0c003 	strb	ip, [r0, r3]
f0000430:	e2833001 	add	r3, r3, #1
f0000434:	e1530002 	cmp	r3, r2
f0000438:	1afffffa 	bne	f0000428 <memmove+0x14>
f000043c:	e12fff1e 	bx	lr
f0000440:	e242c001 	sub	ip, r2, #1
f0000444:	e3520000 	cmp	r2, #0
f0000448:	e081100c 	add	r1, r1, ip
f000044c:	e080c00c 	add	ip, r0, ip
f0000450:	012fff1e 	bxeq	lr
f0000454:	e2623000 	rsb	r3, r2, #0
f0000458:	e0811003 	add	r1, r1, r3
f000045c:	e08cc003 	add	ip, ip, r3
f0000460:	e7d13002 	ldrb	r3, [r1, r2]
f0000464:	e7cc3002 	strb	r3, [ip, r2]
f0000468:	e2522001 	subs	r2, r2, #1
f000046c:	1afffffb 	bne	f0000460 <memmove+0x4c>
f0000470:	e12fff1e 	bx	lr
f0000474:	e12fff1e 	bx	lr

f0000478 <memchr>:
f0000478:	e3520000 	cmp	r2, #0
f000047c:	0a00000f 	beq	f00004c0 <memchr+0x48>
f0000480:	e5d03000 	ldrb	r3, [r0]
f0000484:	e1530001 	cmp	r3, r1
f0000488:	012fff1e 	bxeq	lr
f000048c:	e080c002 	add	ip, r0, r2
f0000490:	e2803001 	add	r3, r0, #1
f0000494:	ea000002 	b	f00004a4 <memchr+0x2c>
f0000498:	e5d02000 	ldrb	r2, [r0]
f000049c:	e1520001 	cmp	r2, r1
f00004a0:	0a000005 	beq	f00004bc <memchr+0x44>
f00004a4:	e153000c 	cmp	r3, ip
f00004a8:	e1a00003 	mov	r0, r3
f00004ac:	e2833001 	add	r3, r3, #1
f00004b0:	1afffff8 	bne	f0000498 <memchr+0x20>
f00004b4:	e3a00000 	mov	r0, #0
f00004b8:	e12fff1e 	bx	lr
f00004bc:	e12fff1e 	bx	lr
f00004c0:	e1a00002 	mov	r0, r2
f00004c4:	e12fff1e 	bx	lr

f00004c8 <strlen>:
f00004c8:	e5d02000 	ldrb	r2, [r0]
f00004cc:	e3520000 	cmp	r2, #0
f00004d0:	0a000007 	beq	f00004f4 <strlen+0x2c>
f00004d4:	e2803001 	add	r3, r0, #1
f00004d8:	e1a02003 	mov	r2, r3
f00004dc:	e2833001 	add	r3, r3, #1
f00004e0:	e5d21000 	ldrb	r1, [r2]
f00004e4:	e3510000 	cmp	r1, #0
f00004e8:	1afffffa 	bne	f00004d8 <strlen+0x10>
f00004ec:	e0600002 	rsb	r0, r0, r2
f00004f0:	e12fff1e 	bx	lr
f00004f4:	e1a00002 	mov	r0, r2
f00004f8:	e12fff1e 	bx	lr

f00004fc <memset>:
f00004fc:	e3520000 	cmp	r2, #0
f0000500:	012fff1e 	bxeq	lr
f0000504:	e6ef1071 	uxtb	r1, r1
f0000508:	e0802002 	add	r2, r0, r2
f000050c:	e1a03000 	mov	r3, r0
f0000510:	e4c31001 	strb	r1, [r3], #1
f0000514:	e1530002 	cmp	r3, r2
f0000518:	1afffffc 	bne	f0000510 <memset+0x14>
f000051c:	e12fff1e 	bx	lr

f0000520 <memcmp>:
f0000520:	e3520000 	cmp	r2, #0
f0000524:	e52d4004 	push	{r4}		; (str r4, [sp, #-4]!)
f0000528:	0a00000f 	beq	f000056c <memcmp+0x4c>
f000052c:	e5d0c000 	ldrb	ip, [r0]
f0000530:	e5d13000 	ldrb	r3, [r1]
f0000534:	e15c0003 	cmp	ip, r3
f0000538:	3a00000e 	bcc	f0000578 <memcmp+0x58>
f000053c:	8a00000f 	bhi	f0000580 <memcmp+0x60>
f0000540:	e2424001 	sub	r4, r2, #1
f0000544:	e3a03000 	mov	r3, #0
f0000548:	ea000004 	b	f0000560 <memcmp+0x40>
f000054c:	e5f0c001 	ldrb	ip, [r0, #1]!
f0000550:	e5f12001 	ldrb	r2, [r1, #1]!
f0000554:	e15c0002 	cmp	ip, r2
f0000558:	3a000006 	bcc	f0000578 <memcmp+0x58>
f000055c:	8a000007 	bhi	f0000580 <memcmp+0x60>
f0000560:	e1530004 	cmp	r3, r4
f0000564:	e2833001 	add	r3, r3, #1
f0000568:	1afffff7 	bne	f000054c <memcmp+0x2c>
f000056c:	e3a00000 	mov	r0, #0
f0000570:	e8bd0010 	pop	{r4}
f0000574:	e12fff1e 	bx	lr
f0000578:	e3e00000 	mvn	r0, #0
f000057c:	eafffffb 	b	f0000570 <memcmp+0x50>
f0000580:	e3a00001 	mov	r0, #1
f0000584:	eafffff9 	b	f0000570 <memcmp+0x50>

f0000588 <strcmp>:
f0000588:	e5d03000 	ldrb	r3, [r0]
f000058c:	e3530000 	cmp	r3, #0
f0000590:	0a000011 	beq	f00005dc <strcmp+0x54>
f0000594:	e5d12000 	ldrb	r2, [r1]
f0000598:	e3520000 	cmp	r2, #0
f000059c:	0a000013 	beq	f00005f0 <strcmp+0x68>
f00005a0:	e1520003 	cmp	r2, r3
f00005a4:	8a000013 	bhi	f00005f8 <strcmp+0x70>
f00005a8:	3a000010 	bcc	f00005f0 <strcmp+0x68>
f00005ac:	e2813001 	add	r3, r1, #1
f00005b0:	ea000005 	b	f00005cc <strcmp+0x44>
f00005b4:	e4d31001 	ldrb	r1, [r3], #1
f00005b8:	e3510000 	cmp	r1, #0
f00005bc:	0a00000b 	beq	f00005f0 <strcmp+0x68>
f00005c0:	e1520001 	cmp	r2, r1
f00005c4:	3a00000b 	bcc	f00005f8 <strcmp+0x70>
f00005c8:	8a000008 	bhi	f00005f0 <strcmp+0x68>
f00005cc:	e5f02001 	ldrb	r2, [r0, #1]!
f00005d0:	e1a01003 	mov	r1, r3
f00005d4:	e3520000 	cmp	r2, #0
f00005d8:	1afffff5 	bne	f00005b4 <strcmp+0x2c>
f00005dc:	e5d13000 	ldrb	r3, [r1]
f00005e0:	e3530000 	cmp	r3, #0
f00005e4:	13e00000 	mvnne	r0, #0
f00005e8:	03a00000 	moveq	r0, #0
f00005ec:	e12fff1e 	bx	lr
f00005f0:	e3a00001 	mov	r0, #1
f00005f4:	e12fff1e 	bx	lr
f00005f8:	e3e00000 	mvn	r0, #0
f00005fc:	e12fff1e 	bx	lr

f0000600 <strncmp>:
f0000600:	e52d4004 	push	{r4}		; (str r4, [sp, #-4]!)
f0000604:	e5d03000 	ldrb	r3, [r0]
f0000608:	e3530000 	cmp	r3, #0
f000060c:	0a000018 	beq	f0000674 <strncmp+0x74>
f0000610:	e5d1c000 	ldrb	ip, [r1]
f0000614:	e35c0000 	cmp	ip, #0
f0000618:	0a000021 	beq	f00006a4 <strncmp+0xa4>
f000061c:	e3520000 	cmp	r2, #0
f0000620:	e2422001 	sub	r2, r2, #1
f0000624:	0a00001e 	beq	f00006a4 <strncmp+0xa4>
f0000628:	e153000c 	cmp	r3, ip
f000062c:	3a000017 	bcc	f0000690 <strncmp+0x90>
f0000630:	8a000019 	bhi	f000069c <strncmp+0x9c>
f0000634:	e2813001 	add	r3, r1, #1
f0000638:	ea000008 	b	f0000660 <strncmp+0x60>
f000063c:	e4d31001 	ldrb	r1, [r3], #1
f0000640:	e3510000 	cmp	r1, #0
f0000644:	0a000016 	beq	f00006a4 <strncmp+0xa4>
f0000648:	e3520000 	cmp	r2, #0
f000064c:	e1a02004 	mov	r2, r4
f0000650:	0a000013 	beq	f00006a4 <strncmp+0xa4>
f0000654:	e15c0001 	cmp	ip, r1
f0000658:	3a00000c 	bcc	f0000690 <strncmp+0x90>
f000065c:	8a00000e 	bhi	f000069c <strncmp+0x9c>
f0000660:	e5f0c001 	ldrb	ip, [r0, #1]!
f0000664:	e1a01003 	mov	r1, r3
f0000668:	e2424001 	sub	r4, r2, #1
f000066c:	e35c0000 	cmp	ip, #0
f0000670:	1afffff1 	bne	f000063c <strncmp+0x3c>
f0000674:	e3520000 	cmp	r2, #0
f0000678:	0a000002 	beq	f0000688 <strncmp+0x88>
f000067c:	e5d13000 	ldrb	r3, [r1]
f0000680:	e3530000 	cmp	r3, #0
f0000684:	1a000001 	bne	f0000690 <strncmp+0x90>
f0000688:	e3a00000 	mov	r0, #0
f000068c:	ea000000 	b	f0000694 <strncmp+0x94>
f0000690:	e3e00000 	mvn	r0, #0
f0000694:	e8bd0010 	pop	{r4}
f0000698:	e12fff1e 	bx	lr
f000069c:	e3a00001 	mov	r0, #1
f00006a0:	eafffffb 	b	f0000694 <strncmp+0x94>
f00006a4:	e2920000 	adds	r0, r2, #0
f00006a8:	13a00001 	movne	r0, #1
f00006ac:	eafffff8 	b	f0000694 <strncmp+0x94>

f00006b0 <strchr>:
f00006b0:	e5d02000 	ldrb	r2, [r0]
f00006b4:	e3520000 	cmp	r2, #0
f00006b8:	0a000009 	beq	f00006e4 <strchr+0x34>
f00006bc:	e1520001 	cmp	r2, r1
f00006c0:	012fff1e 	bxeq	lr
f00006c4:	e2803001 	add	r3, r0, #1
f00006c8:	ea000001 	b	f00006d4 <strchr+0x24>
f00006cc:	e1520001 	cmp	r2, r1
f00006d0:	0a000005 	beq	f00006ec <strchr+0x3c>
f00006d4:	e1a00003 	mov	r0, r3
f00006d8:	e4d32001 	ldrb	r2, [r3], #1
f00006dc:	e3520000 	cmp	r2, #0
f00006e0:	1afffff9 	bne	f00006cc <strchr+0x1c>
f00006e4:	e1a00002 	mov	r0, r2
f00006e8:	e12fff1e 	bx	lr
f00006ec:	e12fff1e 	bx	lr

f00006f0 <hyp_switch_to_next_guest>:
f00006f0:	e92d4038 	push	{r3, r4, r5, lr}
f00006f4:	e1a04000 	mov	r4, r0
f00006f8:	e3a00000 	mov	r0, #0
f00006fc:	eb00010e 	bl	f0000b3c <hvmm_mm_stage2_enable>
f0000700:	e3540000 	cmp	r4, #0
f0000704:	0a000024 	beq	f000079c <hyp_switch_to_next_guest+0xac>
f0000708:	e59f009c 	ldr	r0, [pc, #156]	; f00007ac <hyp_switch_to_next_guest+0xbc>
f000070c:	e3a0204c 	mov	r2, #76	; 0x4c
f0000710:	e3a03000 	mov	r3, #0
f0000714:	e5941004 	ldr	r1, [r4, #4]
f0000718:	e1a0e000 	mov	lr, r0
f000071c:	e49e5004 	ldr	r5, [lr], #4
f0000720:	e0020592 	mul	r2, r2, r5
f0000724:	e08ec002 	add	ip, lr, r2
f0000728:	e58c1004 	str	r1, [ip, #4]
f000072c:	e5941000 	ldr	r1, [r4]
f0000730:	e78e1002 	str	r1, [lr, r2]
f0000734:	e594203c 	ldr	r2, [r4, #60]	; 0x3c
f0000738:	e58c203c 	str	r2, [ip, #60]	; 0x3c
f000073c:	e5942040 	ldr	r2, [r4, #64]	; 0x40
f0000740:	e58c2040 	str	r2, [ip, #64]	; 0x40
f0000744:	e2832002 	add	r2, r3, #2
f0000748:	e2833001 	add	r3, r3, #1
f000074c:	e7941102 	ldr	r1, [r4, r2, lsl #2]
f0000750:	e353000d 	cmp	r3, #13
f0000754:	e78c1102 	str	r1, [ip, r2, lsl #2]
f0000758:	1afffff9 	bne	f0000744 <hyp_switch_to_next_guest+0x54>
f000075c:	e2853001 	add	r3, r5, #1
f0000760:	e1a02fa3 	lsr	r2, r3, #31
f0000764:	e0833002 	add	r3, r3, r2
f0000768:	e2033001 	and	r3, r3, #1
f000076c:	e0623003 	rsb	r3, r2, r3
f0000770:	e5803000 	str	r3, [r0]
f0000774:	e3a0404c 	mov	r4, #76	; 0x4c
f0000778:	e024e394 	mla	r4, r4, r3, lr
f000077c:	e5941044 	ldr	r1, [r4, #68]	; 0x44
f0000780:	e5d40048 	ldrb	r0, [r4, #72]	; 0x48
f0000784:	eb0000f2 	bl	f0000b54 <hvmm_mm_set_vmid_ttbl>
f0000788:	e3a00001 	mov	r0, #1
f000078c:	eb0000ea 	bl	f0000b3c <hvmm_mm_stage2_enable>
f0000790:	e1a00004 	mov	r0, r4
f0000794:	e8bd4038 	pop	{r3, r4, r5, lr}
f0000798:	eafffec1 	b	f00002a4 <__mon_switch_to_guest_context>
f000079c:	e59fe008 	ldr	lr, [pc, #8]	; f00007ac <hyp_switch_to_next_guest+0xbc>
f00007a0:	e1a03004 	mov	r3, r4
f00007a4:	e48e4004 	str	r4, [lr], #4
f00007a8:	eafffff1 	b	f0000774 <hyp_switch_to_next_guest+0x84>
f00007ac:	f0002000 			; <UNDEFINED> instruction: 0xf0002000

f00007b0 <uart_dump_regs>:
f00007b0:	e92d4038 	push	{r3, r4, r5, lr}
f00007b4:	e301355c 	movw	r3, #5468	; 0x155c
f00007b8:	e1a05000 	mov	r5, r0
f00007bc:	e1a00003 	mov	r0, r3
f00007c0:	e34f0000 	movt	r0, #61440	; 0xf000
f00007c4:	e30144fc 	movw	r4, #5372	; 0x14fc
f00007c8:	e34f4000 	movt	r4, #61440	; 0xf000
f00007cc:	eb0000a8 	bl	f0000a74 <uart_print>
f00007d0:	e5950000 	ldr	r0, [r5]
f00007d4:	eb0000b4 	bl	f0000aac <uart_print_hex32>
f00007d8:	e1a00004 	mov	r0, r4
f00007dc:	eb0000a4 	bl	f0000a74 <uart_print>
f00007e0:	e3010564 	movw	r0, #5476	; 0x1564
f00007e4:	e34f0000 	movt	r0, #61440	; 0xf000
f00007e8:	eb0000a1 	bl	f0000a74 <uart_print>
f00007ec:	e5950004 	ldr	r0, [r5, #4]
f00007f0:	eb0000ad 	bl	f0000aac <uart_print_hex32>
f00007f4:	e1a00004 	mov	r0, r4
f00007f8:	eb00009d 	bl	f0000a74 <uart_print>
f00007fc:	e3010568 	movw	r0, #5480	; 0x1568
f0000800:	e34f0000 	movt	r0, #61440	; 0xf000
f0000804:	eb00009a 	bl	f0000a74 <uart_print>
f0000808:	e595003c 	ldr	r0, [r5, #60]	; 0x3c
f000080c:	eb0000a6 	bl	f0000aac <uart_print_hex32>
f0000810:	e1a00004 	mov	r0, r4
f0000814:	eb000096 	bl	f0000a74 <uart_print>
f0000818:	e30108a4 	movw	r0, #6308	; 0x18a4
f000081c:	e34f0000 	movt	r0, #61440	; 0xf000
f0000820:	eb000093 	bl	f0000a74 <uart_print>
f0000824:	e5950040 	ldr	r0, [r5, #64]	; 0x40
f0000828:	eb00009f 	bl	f0000aac <uart_print_hex32>
f000082c:	e1a00004 	mov	r0, r4
f0000830:	e8bd4038 	pop	{r3, r4, r5, lr}
f0000834:	ea00008e 	b	f0000a74 <uart_print>

f0000838 <hyp_abort_infinite>:
f0000838:	eafffffe 	b	f0000838 <hyp_abort_infinite>

f000083c <_hyp_trap_dabort>:
f000083c:	e92d4008 	push	{r3, lr}
f0000840:	ebffffda 	bl	f00007b0 <uart_dump_regs>
f0000844:	eafffffe 	b	f0000844 <_hyp_trap_dabort+0x8>

f0000848 <_hyp_hvc_service>:
f0000848:	e92d40f8 	push	{r3, r4, r5, r6, r7, lr}
f000084c:	e1a04000 	mov	r4, r0
f0000850:	ee956f12 	mrc	15, 4, r6, cr5, cr2, {0}
f0000854:	e59f00d8 	ldr	r0, [pc, #216]	; f0000934 <_hyp_hvc_service+0xec>
f0000858:	e6ff5076 	uxth	r5, r6
f000085c:	e1a07d26 	lsr	r7, r6, #26
f0000860:	eb000083 	bl	f0000a74 <uart_print>
f0000864:	e30f3fff 	movw	r3, #65535	; 0xffff
f0000868:	e1550003 	cmp	r5, r3
f000086c:	03570012 	cmpeq	r7, #18
f0000870:	0a000029 	beq	f000091c <_hyp_hvc_service+0xd4>
f0000874:	e30f3ffd 	movw	r3, #65533	; 0xfffd
f0000878:	e1550003 	cmp	r5, r3
f000087c:	0a00001f 	beq	f0000900 <_hyp_hvc_service+0xb8>
f0000880:	e2833001 	add	r3, r3, #1
f0000884:	e1550003 	cmp	r5, r3
f0000888:	0a000014 	beq	f00008e0 <_hyp_hvc_service+0x98>
f000088c:	e59f00a4 	ldr	r0, [pc, #164]	; f0000938 <_hyp_hvc_service+0xf0>
f0000890:	eb000077 	bl	f0000a74 <uart_print>
f0000894:	e1a00005 	mov	r0, r5
f0000898:	eb000083 	bl	f0000aac <uart_print_hex32>
f000089c:	e59f0098 	ldr	r0, [pc, #152]	; f000093c <_hyp_hvc_service+0xf4>
f00008a0:	eb000073 	bl	f0000a74 <uart_print>
f00008a4:	e59f0094 	ldr	r0, [pc, #148]	; f0000940 <_hyp_hvc_service+0xf8>
f00008a8:	eb000071 	bl	f0000a74 <uart_print>
f00008ac:	e1a00007 	mov	r0, r7
f00008b0:	eb00007d 	bl	f0000aac <uart_print_hex32>
f00008b4:	e59f0080 	ldr	r0, [pc, #128]	; f000093c <_hyp_hvc_service+0xf4>
f00008b8:	eb00006d 	bl	f0000a74 <uart_print>
f00008bc:	e59f0080 	ldr	r0, [pc, #128]	; f0000944 <_hyp_hvc_service+0xfc>
f00008c0:	eb00006b 	bl	f0000a74 <uart_print>
f00008c4:	e1a00006 	mov	r0, r6
f00008c8:	eb000077 	bl	f0000aac <uart_print_hex32>
f00008cc:	e59f0068 	ldr	r0, [pc, #104]	; f000093c <_hyp_hvc_service+0xf4>
f00008d0:	eb000067 	bl	f0000a74 <uart_print>
f00008d4:	e1a00004 	mov	r0, r4
f00008d8:	ebffffb4 	bl	f00007b0 <uart_dump_regs>
f00008dc:	eafffffe 	b	f00008dc <_hyp_hvc_service+0x94>
f00008e0:	e59f0060 	ldr	r0, [pc, #96]	; f0000948 <_hyp_hvc_service+0x100>
f00008e4:	eb000062 	bl	f0000a74 <uart_print>
f00008e8:	e1a00004 	mov	r0, r4
f00008ec:	ebffffaf 	bl	f00007b0 <uart_dump_regs>
f00008f0:	e59f0054 	ldr	r0, [pc, #84]	; f000094c <_hyp_hvc_service+0x104>
f00008f4:	eb00005e 	bl	f0000a74 <uart_print>
f00008f8:	e3a00000 	mov	r0, #0
f00008fc:	e8bd80f8 	pop	{r3, r4, r5, r6, r7, pc}
f0000900:	e59f0048 	ldr	r0, [pc, #72]	; f0000950 <_hyp_hvc_service+0x108>
f0000904:	eb00005a 	bl	f0000a74 <uart_print>
f0000908:	e1a00004 	mov	r0, r4
f000090c:	ebffffa7 	bl	f00007b0 <uart_dump_regs>
f0000910:	e1a00004 	mov	r0, r4
f0000914:	ebffff75 	bl	f00006f0 <hyp_switch_to_next_guest>
f0000918:	eafffff4 	b	f00008f0 <_hyp_hvc_service+0xa8>
f000091c:	e59f0030 	ldr	r0, [pc, #48]	; f0000954 <_hyp_hvc_service+0x10c>
f0000920:	eb000053 	bl	f0000a74 <uart_print>
f0000924:	e1a00004 	mov	r0, r4
f0000928:	ebffffa0 	bl	f00007b0 <uart_dump_regs>
f000092c:	e3a00001 	mov	r0, #1
f0000930:	e8bd80f8 	pop	{r3, r4, r5, r6, r7, pc}
f0000934:	f000156c 			; <UNDEFINED> instruction: 0xf000156c
f0000938:	f00015e0 			; <UNDEFINED> instruction: 0xf00015e0
f000093c:	f00014fc 			; <UNDEFINED> instruction: 0xf00014fc
f0000940:	f0001608 			; <UNDEFINED> instruction: 0xf0001608
f0000944:	f0001618 			; <UNDEFINED> instruction: 0xf0001618
f0000948:	f00015a0 			; <UNDEFINED> instruction: 0xf00015a0
f000094c:	f0001624 			; <UNDEFINED> instruction: 0xf0001624
f0000950:	f00015c0 			; <UNDEFINED> instruction: 0xf00015c0
f0000954:	f000158c 			; <UNDEFINED> instruction: 0xf000158c

f0000958 <hyp_init_guests>:
f0000958:	e92d4038 	push	{r3, r4, r5, lr}
f000095c:	e3010644 	movw	r0, #5700	; 0x1644
f0000960:	e3024000 	movw	r4, #8192	; 0x2000
f0000964:	e3a05000 	mov	r5, #0
f0000968:	e34f4000 	movt	r4, #61440	; 0xf000
f000096c:	e34f0000 	movt	r0, #61440	; 0xf000
f0000970:	eb00003f 	bl	f0000a74 <uart_print>
f0000974:	e1a00005 	mov	r0, r5
f0000978:	e5845008 	str	r5, [r4, #8]
f000097c:	e5845004 	str	r5, [r4, #4]
f0000980:	e5845040 	str	r5, [r4, #64]	; 0x40
f0000984:	e5845044 	str	r5, [r4, #68]	; 0x44
f0000988:	e5c4504c 	strb	r5, [r4, #76]	; 0x4c
f000098c:	eb000064 	bl	f0000b24 <hvmm_mm_vmid_ttbl>
f0000990:	e3a03001 	mov	r3, #1
f0000994:	e5840048 	str	r0, [r4, #72]	; 0x48
f0000998:	e1a00003 	mov	r0, r3
f000099c:	e5845054 	str	r5, [r4, #84]	; 0x54
f00009a0:	e5c43098 	strb	r3, [r4, #152]	; 0x98
f00009a4:	e5845050 	str	r5, [r4, #80]	; 0x50
f00009a8:	e584508c 	str	r5, [r4, #140]	; 0x8c
f00009ac:	e5845090 	str	r5, [r4, #144]	; 0x90
f00009b0:	eb00005b 	bl	f0000b24 <hvmm_mm_vmid_ttbl>
f00009b4:	e3013660 	movw	r3, #5728	; 0x1660
f00009b8:	e5840094 	str	r0, [r4, #148]	; 0x94
f00009bc:	e1a00003 	mov	r0, r3
f00009c0:	e34f0000 	movt	r0, #61440	; 0xf000
f00009c4:	e8bd4038 	pop	{r3, r4, r5, lr}
f00009c8:	ea000029 	b	f0000a74 <uart_print>

f00009cc <hyp_switch_to_initial_guest>:
f00009cc:	e301067c 	movw	r0, #5756	; 0x167c
f00009d0:	e92d4010 	push	{r4, lr}
f00009d4:	e34f0000 	movt	r0, #61440	; 0xf000
f00009d8:	e3a04000 	mov	r4, #0
f00009dc:	eb000024 	bl	f0000a74 <uart_print>
f00009e0:	e3020000 	movw	r0, #8192	; 0x2000
f00009e4:	e34f0000 	movt	r0, #61440	; 0xf000
f00009e8:	e4804004 	str	r4, [r0], #4
f00009ec:	ebffff6f 	bl	f00007b0 <uart_dump_regs>
f00009f0:	e1a00004 	mov	r0, r4
f00009f4:	e8bd4010 	pop	{r4, lr}
f00009f8:	eaffff3c 	b	f00006f0 <hyp_switch_to_next_guest>

f00009fc <hyp_switch_guest>:
f00009fc:	e30106a0 	movw	r0, #5792	; 0x16a0
f0000a00:	e92d4008 	push	{r3, lr}
f0000a04:	e34f0000 	movt	r0, #61440	; 0xf000
f0000a08:	eb000019 	bl	f0000a74 <uart_print>
f0000a0c:	e8bd4008 	pop	{r3, lr}
f0000a10:	eaffffed 	b	f00009cc <hyp_switch_to_initial_guest>

f0000a14 <hyp_main>:
f0000a14:	e92d4008 	push	{r3, lr}
f0000a18:	e59f0030 	ldr	r0, [pc, #48]	; f0000a50 <hyp_main+0x3c>
f0000a1c:	eb000014 	bl	f0000a74 <uart_print>
f0000a20:	eb000161 	bl	f0000fac <hvmm_mm_init>
f0000a24:	eb0002ae 	bl	f00014e4 <hvmm_interrupt_init>
f0000a28:	e3500000 	cmp	r0, #0
f0000a2c:	1a000004 	bne	f0000a44 <hyp_main+0x30>
f0000a30:	ebffffc8 	bl	f0000958 <hyp_init_guests>
f0000a34:	ebfffff0 	bl	f00009fc <hyp_switch_guest>
f0000a38:	e59f0014 	ldr	r0, [pc, #20]	; f0000a54 <hyp_main+0x40>
f0000a3c:	eb00000c 	bl	f0000a74 <uart_print>
f0000a40:	eafffffe 	b	f0000a40 <hyp_main+0x2c>
f0000a44:	e59f000c 	ldr	r0, [pc, #12]	; f0000a58 <hyp_main+0x44>
f0000a48:	eb000009 	bl	f0000a74 <uart_print>
f0000a4c:	eafffff7 	b	f0000a30 <hyp_main+0x1c>
f0000a50:	f00016d0 			; <UNDEFINED> instruction: 0xf00016d0
f0000a54:	f000171c 			; <UNDEFINED> instruction: 0xf000171c
f0000a58:	f00016ec 			; <UNDEFINED> instruction: 0xf00016ec

f0000a5c <mon_enter_hyp>:
f0000a5c:	e301074c 	movw	r0, #5964	; 0x174c
f0000a60:	e92d4008 	push	{r3, lr}
f0000a64:	e34f0000 	movt	r0, #61440	; 0xf000
f0000a68:	eb000001 	bl	f0000a74 <uart_print>
f0000a6c:	e8bd4008 	pop	{r3, lr}
f0000a70:	eafffe1f 	b	f00002f4 <__mon_enter_hyp>

f0000a74 <uart_print>:
f0000a74:	e5d03000 	ldrb	r3, [r0]
f0000a78:	e3530000 	cmp	r3, #0
f0000a7c:	012fff1e 	bxeq	lr
f0000a80:	e3a02000 	mov	r2, #0
f0000a84:	e3412c09 	movt	r2, #7177	; 0x1c09
f0000a88:	e5c23000 	strb	r3, [r2]
f0000a8c:	e5f03001 	ldrb	r3, [r0, #1]!
f0000a90:	e3530000 	cmp	r3, #0
f0000a94:	1afffffb 	bne	f0000a88 <uart_print+0x14>
f0000a98:	e12fff1e 	bx	lr

f0000a9c <uart_putc>:
f0000a9c:	e3a03000 	mov	r3, #0
f0000aa0:	e3413c09 	movt	r3, #7177	; 0x1c09
f0000aa4:	e5c30000 	strb	r0, [r3]
f0000aa8:	e12fff1e 	bx	lr

f0000aac <uart_print_hex32>:
f0000aac:	e59f2050 	ldr	r2, [pc, #80]	; f0000b04 <uart_print_hex32+0x58>
f0000ab0:	e3a01000 	mov	r1, #0
f0000ab4:	e3a03030 	mov	r3, #48	; 0x30
f0000ab8:	e3411c09 	movt	r1, #7177	; 0x1c09
f0000abc:	e5c13000 	strb	r3, [r1]
f0000ac0:	e5f23001 	ldrb	r3, [r2, #1]!
f0000ac4:	e3530000 	cmp	r3, #0
f0000ac8:	1afffffb 	bne	f0000abc <uart_print_hex32+0x10>
f0000acc:	e3a0c000 	mov	ip, #0
f0000ad0:	e3a0301c 	mov	r3, #28
f0000ad4:	e341cc09 	movt	ip, #7177	; 0x1c09
f0000ad8:	e1a02330 	lsr	r2, r0, r3
f0000adc:	e2433004 	sub	r3, r3, #4
f0000ae0:	e202200f 	and	r2, r2, #15
f0000ae4:	e3520009 	cmp	r2, #9
f0000ae8:	e2821030 	add	r1, r2, #48	; 0x30
f0000aec:	82821037 	addhi	r1, r2, #55	; 0x37
f0000af0:	e3730004 	cmn	r3, #4
f0000af4:	e6ef1071 	uxtb	r1, r1
f0000af8:	e5cc1000 	strb	r1, [ip]
f0000afc:	1afffff5 	bne	f0000ad8 <uart_print_hex32+0x2c>
f0000b00:	e12fff1e 	bx	lr
f0000b04:	f0001788 			; <UNDEFINED> instruction: 0xf0001788

f0000b08 <uart_print_hex64>:
f0000b08:	e92d4010 	push	{r4, lr}
f0000b0c:	e1a04000 	mov	r4, r0
f0000b10:	e1a00001 	mov	r0, r1
f0000b14:	ebffffe4 	bl	f0000aac <uart_print_hex32>
f0000b18:	e1a00004 	mov	r0, r4
f0000b1c:	e8bd4010 	pop	{r4, lr}
f0000b20:	eaffffe1 	b	f0000aac <uart_print_hex32>

f0000b24 <hvmm_mm_vmid_ttbl>:
f0000b24:	e3500001 	cmp	r0, #1
f0000b28:	959f3008 	ldrls	r3, [pc, #8]	; f0000b38 <hvmm_mm_vmid_ttbl+0x14>
f0000b2c:	97930100 	ldrls	r0, [r3, r0, lsl #2]
f0000b30:	83a00000 	movhi	r0, #0
f0000b34:	e12fff1e 	bx	lr
f0000b38:	f0003000 			; <UNDEFINED> instruction: 0xf0003000

f0000b3c <hvmm_mm_stage2_enable>:
f0000b3c:	ee913f11 	mrc	15, 4, r3, cr1, cr1, {0}
f0000b40:	e3500000 	cmp	r0, #0
f0000b44:	13833001 	orrne	r3, r3, #1
f0000b48:	03c33001 	biceq	r3, r3, #1
f0000b4c:	ee813f11 	mcr	15, 4, r3, cr1, cr1, {0}
f0000b50:	e12fff1e 	bx	lr

f0000b54 <hvmm_mm_set_vmid_ttbl>:
f0000b54:	e92d4ff0 	push	{r4, r5, r6, r7, r8, r9, sl, fp, lr}
f0000b58:	e1a0b000 	mov	fp, r0
f0000b5c:	e24dd00c 	sub	sp, sp, #12
f0000b60:	e1a0a001 	mov	sl, r1
f0000b64:	ec523f62 	mrrc	15, 6, r3, r2, cr2
f0000b68:	e3a04000 	mov	r4, #0
f0000b6c:	e301c4fc 	movw	ip, #5372	; 0x14fc
f0000b70:	e0946003 	adds	r6, r4, r3
f0000b74:	e34fc000 	movt	ip, #61440	; 0xf000
f0000b78:	e301078c 	movw	r0, #6028	; 0x178c
f0000b7c:	e2a27000 	adc	r7, r2, #0
f0000b80:	e34f0000 	movt	r0, #61440	; 0xf000
f0000b84:	e1a05002 	mov	r5, r2
f0000b88:	e58dc004 	str	ip, [sp, #4]
f0000b8c:	ebffffb8 	bl	f0000a74 <uart_print>
f0000b90:	e1a01007 	mov	r1, r7
f0000b94:	e1a00006 	mov	r0, r6
f0000b98:	ebffffda 	bl	f0000b08 <uart_print_hex64>
f0000b9c:	e59dc004 	ldr	ip, [sp, #4]
f0000ba0:	e3e08000 	mvn	r8, #0
f0000ba4:	e3e098ff 	mvn	r9, #16711680	; 0xff0000
f0000ba8:	e0066008 	and	r6, r6, r8
f0000bac:	e0077009 	and	r7, r7, r9
f0000bb0:	e1a0000c 	mov	r0, ip
f0000bb4:	ebffffae 	bl	f0000a74 <uart_print>
f0000bb8:	e1a0380b 	lsl	r3, fp, #16
f0000bbc:	e3a00000 	mov	r0, #0
f0000bc0:	e0042000 	and	r2, r4, r0
f0000bc4:	e3a018ff 	mov	r1, #16711680	; 0xff0000
f0000bc8:	e1868002 	orr	r8, r6, r2
f0000bcc:	e0033001 	and	r3, r3, r1
f0000bd0:	e3caeeff 	bic	lr, sl, #4080	; 0xff0
f0000bd4:	e300afff 	movw	sl, #4095	; 0xfff
f0000bd8:	e1879003 	orr	r9, r7, r3
f0000bdc:	e3e0b0ff 	mvn	fp, #255	; 0xff
f0000be0:	e3cee00f 	bic	lr, lr, #15
f0000be4:	e008800a 	and	r8, r8, sl
f0000be8:	e009900b 	and	r9, r9, fp
f0000bec:	e188800e 	orr	r8, r8, lr
f0000bf0:	e1a06009 	mov	r6, r9
f0000bf4:	e1a02008 	mov	r2, r8
f0000bf8:	e1a03004 	mov	r3, r4
f0000bfc:	e1a07004 	mov	r7, r4
f0000c00:	ec462f62 	mcrr	15, 6, r2, r6, cr2
f0000c04:	ec5e1f62 	mrrc	15, 6, r1, lr, cr2
f0000c08:	e301079c 	movw	r0, #6044	; 0x179c
f0000c0c:	e0946001 	adds	r6, r4, r1
f0000c10:	e2ae7000 	adc	r7, lr, #0
f0000c14:	e34f0000 	movt	r0, #61440	; 0xf000
f0000c18:	ebffff95 	bl	f0000a74 <uart_print>
f0000c1c:	e1a00006 	mov	r0, r6
f0000c20:	e1a01007 	mov	r1, r7
f0000c24:	ebffffb7 	bl	f0000b08 <uart_print_hex64>
f0000c28:	e59dc004 	ldr	ip, [sp, #4]
f0000c2c:	e1a0000c 	mov	r0, ip
f0000c30:	ebffff8f 	bl	f0000a74 <uart_print>
f0000c34:	e1a00004 	mov	r0, r4
f0000c38:	e28dd00c 	add	sp, sp, #12
f0000c3c:	e8bd8ff0 	pop	{r4, r5, r6, r7, r8, r9, sl, fp, pc}

f0000c40 <hvmm_mm_lpaed_l2_block>:
f0000c40:	e5d0c000 	ldrb	ip, [r0]
f0000c44:	e92d00f0 	push	{r4, r5, r6, r7}
f0000c48:	e3a04000 	mov	r4, #0
f0000c4c:	e34f4fe0 	movt	r4, #65504	; 0xffe0
f0000c50:	e3a050ff 	mov	r5, #255	; 0xff
f0000c54:	e0022004 	and	r2, r2, r4
f0000c58:	e0033005 	and	r3, r3, r5
f0000c5c:	e38cc001 	orr	ip, ip, #1
f0000c60:	e30f6fff 	movw	r6, #65535	; 0xffff
f0000c64:	e7c1c09f 	bfc	ip, #1, #1
f0000c68:	e340601f 	movt	r6, #31
f0000c6c:	e3e070ff 	mvn	r7, #255	; 0xff
f0000c70:	e5c0c000 	strb	ip, [r0]
f0000c74:	e1c040d0 	ldrd	r4, [r0]
f0000c78:	e0066004 	and	r6, r6, r4
f0000c7c:	e0077005 	and	r7, r7, r5
f0000c80:	e1824006 	orr	r4, r2, r6
f0000c84:	e1835007 	orr	r5, r3, r7
f0000c88:	e1c040f0 	strd	r4, [r0]
f0000c8c:	e5903004 	ldr	r3, [r0, #4]
f0000c90:	e5d0c001 	ldrb	ip, [r0, #1]
f0000c94:	e5d04000 	ldrb	r4, [r0]
f0000c98:	e7d3341f 	bfc	r3, #8, #12
f0000c9c:	e1a05823 	lsr	r5, r3, #16
f0000ca0:	e1a02c23 	lsr	r2, r3, #24
f0000ca4:	e5803004 	str	r3, [r0, #4]
f0000ca8:	e20cc0fc 	and	ip, ip, #252	; 0xfc
f0000cac:	e20530cf 	and	r3, r5, #207	; 0xcf
f0000cb0:	e2044083 	and	r4, r4, #131	; 0x83
f0000cb4:	e38cc004 	orr	ip, ip, #4
f0000cb8:	e38440e8 	orr	r4, r4, #232	; 0xe8
f0000cbc:	e7c3c19f 	bfc	ip, #3, #1
f0000cc0:	e7c6331f 	bfc	r3, #6, #1
f0000cc4:	e7c7219f 	bfc	r2, #3, #5
f0000cc8:	e5c04000 	strb	r4, [r0]
f0000ccc:	e5c0c001 	strb	ip, [r0, #1]
f0000cd0:	e5c03006 	strb	r3, [r0, #6]
f0000cd4:	e5c02007 	strb	r2, [r0, #7]
f0000cd8:	e8bd00f0 	pop	{r4, r5, r6, r7}
f0000cdc:	e12fff1e 	bx	lr

f0000ce0 <hvmm_mm_lpaed_l1_block>:
f0000ce0:	e30117ac 	movw	r1, #6060	; 0x17ac
f0000ce4:	e92d45f8 	push	{r3, r4, r5, r6, r7, r8, sl, lr}
f0000ce8:	e1a0a000 	mov	sl, r0
f0000cec:	e1a00001 	mov	r0, r1
f0000cf0:	e5dd8020 	ldrb	r8, [sp, #32]
f0000cf4:	e34f0000 	movt	r0, #61440	; 0xf000
f0000cf8:	e1a04002 	mov	r4, r2
f0000cfc:	e1a05003 	mov	r5, r3
f0000d00:	e30164fc 	movw	r6, #5372	; 0x14fc
f0000d04:	ebffff5a 	bl	f0000a74 <uart_print>
f0000d08:	e30107cc 	movw	r0, #6092	; 0x17cc
f0000d0c:	e34f6000 	movt	r6, #61440	; 0xf000
f0000d10:	e34f0000 	movt	r0, #61440	; 0xf000
f0000d14:	e3e070ff 	mvn	r7, #255	; 0xff
f0000d18:	ebffff55 	bl	f0000a74 <uart_print>
f0000d1c:	e1a01005 	mov	r1, r5
f0000d20:	e1a00004 	mov	r0, r4
f0000d24:	ebffff77 	bl	f0000b08 <uart_print_hex64>
f0000d28:	e1a00006 	mov	r0, r6
f0000d2c:	ebffff50 	bl	f0000a74 <uart_print>
f0000d30:	e30107d4 	movw	r0, #6100	; 0x17d4
f0000d34:	e34f0000 	movt	r0, #61440	; 0xf000
f0000d38:	ebffff4d 	bl	f0000a74 <uart_print>
f0000d3c:	e1a00008 	mov	r0, r8
f0000d40:	ebffff59 	bl	f0000aac <uart_print_hex32>
f0000d44:	e1a00006 	mov	r0, r6
f0000d48:	e3e0633b 	mvn	r6, #-335544320	; 0xec000000
f0000d4c:	ebffff48 	bl	f0000a74 <uart_print>
f0000d50:	e5da1000 	ldrb	r1, [sl]
f0000d54:	e3a030ff 	mov	r3, #255	; 0xff
f0000d58:	e3a0233b 	mov	r2, #-335544320	; 0xec000000
f0000d5c:	e0055003 	and	r5, r5, r3
f0000d60:	e0044002 	and	r4, r4, r2
f0000d64:	e1a0000a 	mov	r0, sl
f0000d68:	e3813001 	orr	r3, r1, #1
f0000d6c:	e7c1309f 	bfc	r3, #1, #1
f0000d70:	e5ca3000 	strb	r3, [sl]
f0000d74:	e1ca20d0 	ldrd	r2, [sl]
f0000d78:	e0022006 	and	r2, r2, r6
f0000d7c:	e0033007 	and	r3, r3, r7
f0000d80:	e1822004 	orr	r2, r2, r4
f0000d84:	e1833005 	orr	r3, r3, r5
f0000d88:	e1ca20f0 	strd	r2, [sl]
f0000d8c:	e59a3004 	ldr	r3, [sl, #4]
f0000d90:	e5da2000 	ldrb	r2, [sl]
f0000d94:	e5da1001 	ldrb	r1, [sl, #1]
f0000d98:	e7d3341f 	bfc	r3, #8, #12
f0000d9c:	e7c42118 	bfi	r2, r8, #2, #3
f0000da0:	e1a0c823 	lsr	ip, r3, #16
f0000da4:	e6ef2072 	uxtb	r2, r2
f0000da8:	e58a3004 	str	r3, [sl, #4]
f0000dac:	e20110f8 	and	r1, r1, #248	; 0xf8
f0000db0:	e20c30cf 	and	r3, ip, #207	; 0xcf
f0000db4:	e3822060 	orr	r2, r2, #96	; 0x60
f0000db8:	e7c7239f 	bfc	r2, #7, #1
f0000dbc:	e381100e 	orr	r1, r1, #14
f0000dc0:	e7c6331f 	bfc	r3, #6, #1
f0000dc4:	e5ca2000 	strb	r2, [sl]
f0000dc8:	e5ca1001 	strb	r1, [sl, #1]
f0000dcc:	e5ca3006 	strb	r3, [sl, #6]
f0000dd0:	e8bd85f8 	pop	{r3, r4, r5, r6, r7, r8, sl, pc}

f0000dd4 <_vmm_init>:
f0000dd4:	e3042ff8 	movw	r2, #20472	; 0x4ff8
f0000dd8:	e3033000 	movw	r3, #12288	; 0x3000
f0000ddc:	e34f2000 	movt	r2, #61440	; 0xf000
f0000de0:	e34f3000 	movt	r3, #61440	; 0xf000
f0000de4:	e2421eff 	sub	r1, r2, #4080	; 0xff0
f0000de8:	e2822010 	add	r2, r2, #16
f0000dec:	e2411008 	sub	r1, r1, #8
f0000df0:	e8830006 	stm	r3, {r1, r2}
f0000df4:	e12fff1e 	bx	lr

f0000df8 <_hmm_init>:
f0000df8:	e92d47f0 	push	{r4, r5, r6, r7, r8, r9, sl, lr}
f0000dfc:	e3a08004 	mov	r8, #4
f0000e00:	e24dd010 	sub	sp, sp, #16
f0000e04:	e3a02000 	mov	r2, #0
f0000e08:	e59f4178 	ldr	r4, [pc, #376]	; f0000f88 <_hmm_init+0x190>
f0000e0c:	e28d0008 	add	r0, sp, #8
f0000e10:	e3a03000 	mov	r3, #0
f0000e14:	e58d8000 	str	r8, [sp]
f0000e18:	e30f9010 	movw	r9, #61456	; 0xf010
f0000e1c:	e3a0a000 	mov	sl, #0
f0000e20:	ebffffae 	bl	f0000ce0 <hvmm_mm_lpaed_l1_block>
f0000e24:	e1cd20d8 	ldrd	r2, [sp, #8]
f0000e28:	e34f9fff 	movt	r9, #65535	; 0xffff
f0000e2c:	e30f7018 	movw	r7, #61464	; 0xf018
f0000e30:	e59f0154 	ldr	r0, [pc, #340]	; f0000f8c <_hmm_init+0x194>
f0000e34:	e34f7fff 	movt	r7, #65535	; 0xffff
f0000e38:	e30f6020 	movw	r6, #61472	; 0xf020
f0000e3c:	e34f6fff 	movt	r6, #65535	; 0xffff
f0000e40:	e30f5028 	movw	r5, #61480	; 0xf028
f0000e44:	e34f5fff 	movt	r5, #65535	; 0xffff
f0000e48:	e18420f9 	strd	r2, [r4, r9]
f0000e4c:	ebffff08 	bl	f0000a74 <uart_print>
f0000e50:	e2440eff 	sub	r0, r4, #4080	; 0xff0
f0000e54:	ebffff14 	bl	f0000aac <uart_print_hex32>
f0000e58:	e59f0130 	ldr	r0, [pc, #304]	; f0000f90 <_hmm_init+0x198>
f0000e5c:	ebffff04 	bl	f0000a74 <uart_print>
f0000e60:	e59f012c 	ldr	r0, [pc, #300]	; f0000f94 <_hmm_init+0x19c>
f0000e64:	ebffff02 	bl	f0000a74 <uart_print>
f0000e68:	e18400d9 	ldrd	r0, [r4, r9]
f0000e6c:	ebffff25 	bl	f0000b08 <uart_print_hex64>
f0000e70:	e59f0118 	ldr	r0, [pc, #280]	; f0000f90 <_hmm_init+0x198>
f0000e74:	ebfffefe 	bl	f0000a74 <uart_print>
f0000e78:	e28d0008 	add	r0, sp, #8
f0000e7c:	e3a02101 	mov	r2, #1073741824	; 0x40000000
f0000e80:	e58da000 	str	sl, [sp]
f0000e84:	e3a03000 	mov	r3, #0
f0000e88:	ebffff94 	bl	f0000ce0 <hvmm_mm_lpaed_l1_block>
f0000e8c:	e1cd20d8 	ldrd	r2, [sp, #8]
f0000e90:	e59f0100 	ldr	r0, [pc, #256]	; f0000f98 <_hmm_init+0x1a0>
f0000e94:	e18420f7 	strd	r2, [r4, r7]
f0000e98:	ebfffef5 	bl	f0000a74 <uart_print>
f0000e9c:	e59f00f8 	ldr	r0, [pc, #248]	; f0000f9c <_hmm_init+0x1a4>
f0000ea0:	ebffff01 	bl	f0000aac <uart_print_hex32>
f0000ea4:	e59f00e4 	ldr	r0, [pc, #228]	; f0000f90 <_hmm_init+0x198>
f0000ea8:	ebfffef1 	bl	f0000a74 <uart_print>
f0000eac:	e59f00e0 	ldr	r0, [pc, #224]	; f0000f94 <_hmm_init+0x19c>
f0000eb0:	ebfffeef 	bl	f0000a74 <uart_print>
f0000eb4:	e18400d7 	ldrd	r0, [r4, r7]
f0000eb8:	ebffff12 	bl	f0000b08 <uart_print_hex64>
f0000ebc:	e59f00cc 	ldr	r0, [pc, #204]	; f0000f90 <_hmm_init+0x198>
f0000ec0:	ebfffeeb 	bl	f0000a74 <uart_print>
f0000ec4:	e28d0008 	add	r0, sp, #8
f0000ec8:	e3a02102 	mov	r2, #-2147483648	; 0x80000000
f0000ecc:	e58da000 	str	sl, [sp]
f0000ed0:	e3a03000 	mov	r3, #0
f0000ed4:	ebffff81 	bl	f0000ce0 <hvmm_mm_lpaed_l1_block>
f0000ed8:	e1cd20d8 	ldrd	r2, [sp, #8]
f0000edc:	e59f00bc 	ldr	r0, [pc, #188]	; f0000fa0 <_hmm_init+0x1a8>
f0000ee0:	e18420f6 	strd	r2, [r4, r6]
f0000ee4:	ebfffee2 	bl	f0000a74 <uart_print>
f0000ee8:	e2440efe 	sub	r0, r4, #4064	; 0xfe0
f0000eec:	ebfffeee 	bl	f0000aac <uart_print_hex32>
f0000ef0:	e59f0098 	ldr	r0, [pc, #152]	; f0000f90 <_hmm_init+0x198>
f0000ef4:	ebfffede 	bl	f0000a74 <uart_print>
f0000ef8:	e59f0094 	ldr	r0, [pc, #148]	; f0000f94 <_hmm_init+0x19c>
f0000efc:	ebfffedc 	bl	f0000a74 <uart_print>
f0000f00:	e18400d6 	ldrd	r0, [r4, r6]
f0000f04:	ebfffeff 	bl	f0000b08 <uart_print_hex64>
f0000f08:	e59f0080 	ldr	r0, [pc, #128]	; f0000f90 <_hmm_init+0x198>
f0000f0c:	ebfffed8 	bl	f0000a74 <uart_print>
f0000f10:	e3a01003 	mov	r1, #3
f0000f14:	e28d0008 	add	r0, sp, #8
f0000f18:	e3a02103 	mov	r2, #-1073741824	; 0xc0000000
f0000f1c:	e3a03000 	mov	r3, #0
f0000f20:	e58d1000 	str	r1, [sp]
f0000f24:	ebffff6d 	bl	f0000ce0 <hvmm_mm_lpaed_l1_block>
f0000f28:	e1cd20d8 	ldrd	r2, [sp, #8]
f0000f2c:	e59f0070 	ldr	r0, [pc, #112]	; f0000fa4 <_hmm_init+0x1ac>
f0000f30:	e18420f5 	strd	r2, [r4, r5]
f0000f34:	ebfffece 	bl	f0000a74 <uart_print>
f0000f38:	e59f0068 	ldr	r0, [pc, #104]	; f0000fa8 <_hmm_init+0x1b0>
f0000f3c:	ebfffeda 	bl	f0000aac <uart_print_hex32>
f0000f40:	e59f0048 	ldr	r0, [pc, #72]	; f0000f90 <_hmm_init+0x198>
f0000f44:	ebfffeca 	bl	f0000a74 <uart_print>
f0000f48:	e59f0044 	ldr	r0, [pc, #68]	; f0000f94 <_hmm_init+0x19c>
f0000f4c:	ebfffec8 	bl	f0000a74 <uart_print>
f0000f50:	e18400d5 	ldrd	r0, [r4, r5]
f0000f54:	ebfffeeb 	bl	f0000b08 <uart_print_hex64>
f0000f58:	e59f0030 	ldr	r0, [pc, #48]	; f0000f90 <_hmm_init+0x198>
f0000f5c:	ebfffec4 	bl	f0000a74 <uart_print>
f0000f60:	e1a03008 	mov	r3, r8
f0000f64:	e0842183 	add	r2, r4, r3, lsl #3
f0000f68:	e2833001 	add	r3, r3, #1
f0000f6c:	e3530c02 	cmp	r3, #512	; 0x200
f0000f70:	e5521ff0 	ldrb	r1, [r2, #-4080]	; 0xff0
f0000f74:	e7c0101f 	bfc	r1, #0, #1
f0000f78:	e5421ff0 	strb	r1, [r2, #-4080]	; 0xff0
f0000f7c:	1afffff8 	bne	f0000f64 <_hmm_init+0x16c>
f0000f80:	e28dd010 	add	sp, sp, #16
f0000f84:	e8bd87f0 	pop	{r4, r5, r6, r7, r8, r9, sl, pc}
f0000f88:	f0006ff0 			; <UNDEFINED> instruction: 0xf0006ff0
f0000f8c:	f00017e0 			; <UNDEFINED> instruction: 0xf00017e0
f0000f90:	f00014fc 			; <UNDEFINED> instruction: 0xf00014fc
f0000f94:	f00017f4 			; <UNDEFINED> instruction: 0xf00017f4
f0000f98:	f00017fc 			; <UNDEFINED> instruction: 0xf00017fc
f0000f9c:	f0006008 			; <UNDEFINED> instruction: 0xf0006008
f0000fa0:	f0001810 			; <UNDEFINED> instruction: 0xf0001810
f0000fa4:	f0001824 			; <UNDEFINED> instruction: 0xf0001824
f0000fa8:	f0006018 			; <UNDEFINED> instruction: 0xf0006018

f0000fac <hvmm_mm_init>:
f0000fac:	e92d4ff8 	push	{r3, r4, r5, r6, r7, r8, r9, sl, fp, lr}
f0000fb0:	e59f0370 	ldr	r0, [pc, #880]	; f0001328 <hvmm_mm_init+0x37c>
f0000fb4:	ebfffeae 	bl	f0000a74 <uart_print>
f0000fb8:	e59f136c 	ldr	r1, [pc, #876]	; f000132c <hvmm_mm_init+0x380>
f0000fbc:	e59f236c 	ldr	r2, [pc, #876]	; f0001330 <hvmm_mm_init+0x384>
f0000fc0:	e2813a01 	add	r3, r1, #4096	; 0x1000
f0000fc4:	e2833008 	add	r3, r3, #8
f0000fc8:	e882000a 	stm	r2, {r1, r3}
f0000fcc:	ebffff89 	bl	f0000df8 <_hmm_init>
f0000fd0:	e59f035c 	ldr	r0, [pc, #860]	; f0001334 <hvmm_mm_init+0x388>
f0000fd4:	ebfffea6 	bl	f0000a74 <uart_print>
f0000fd8:	ee9a4f12 	mrc	15, 4, r4, cr10, cr2, {0}
f0000fdc:	e59f0354 	ldr	r0, [pc, #852]	; f0001338 <hvmm_mm_init+0x38c>
f0000fe0:	ebfffea3 	bl	f0000a74 <uart_print>
f0000fe4:	e1a00004 	mov	r0, r4
f0000fe8:	ebfffeaf 	bl	f0000aac <uart_print_hex32>
f0000fec:	e59f0348 	ldr	r0, [pc, #840]	; f000133c <hvmm_mm_init+0x390>
f0000ff0:	ebfffe9f 	bl	f0000a74 <uart_print>
f0000ff4:	ee9a4f32 	mrc	15, 4, r4, cr10, cr2, {1}
f0000ff8:	e59f0340 	ldr	r0, [pc, #832]	; f0001340 <hvmm_mm_init+0x394>
f0000ffc:	ebfffe9c 	bl	f0000a74 <uart_print>
f0001000:	e1a00004 	mov	r0, r4
f0001004:	ebfffea8 	bl	f0000aac <uart_print_hex32>
f0001008:	e59f032c 	ldr	r0, [pc, #812]	; f000133c <hvmm_mm_init+0x390>
f000100c:	ebfffe98 	bl	f0000a74 <uart_print>
f0001010:	ee9a4f12 	mrc	15, 4, r4, cr10, cr2, {0}
f0001014:	e59f0328 	ldr	r0, [pc, #808]	; f0001344 <hvmm_mm_init+0x398>
f0001018:	ebfffe95 	bl	f0000a74 <uart_print>
f000101c:	e1a00004 	mov	r0, r4
f0001020:	ebfffea1 	bl	f0000aac <uart_print_hex32>
f0001024:	e59f0310 	ldr	r0, [pc, #784]	; f000133c <hvmm_mm_init+0x390>
f0001028:	ebfffe91 	bl	f0000a74 <uart_print>
f000102c:	ee9a4f32 	mrc	15, 4, r4, cr10, cr2, {1}
f0001030:	e59f0310 	ldr	r0, [pc, #784]	; f0001348 <hvmm_mm_init+0x39c>
f0001034:	ebfffe8e 	bl	f0000a74 <uart_print>
f0001038:	e1a00004 	mov	r0, r4
f000103c:	ebfffe9a 	bl	f0000aac <uart_print_hex32>
f0001040:	e59f02f4 	ldr	r0, [pc, #756]	; f000133c <hvmm_mm_init+0x390>
f0001044:	ebfffe8a 	bl	f0000a74 <uart_print>
f0001048:	e3a02b11 	mov	r2, #17408	; 0x4400
f000104c:	e34e2eaa 	movt	r2, #61098	; 0xeeaa
f0001050:	ee8a2f12 	mcr	15, 4, r2, cr10, cr2, {0}
f0001054:	e3a03004 	mov	r3, #4
f0001058:	e34f3f00 	movt	r3, #65280	; 0xff00
f000105c:	ee8a3f32 	mcr	15, 4, r3, cr10, cr2, {1}
f0001060:	ee8a2f12 	mcr	15, 4, r2, cr10, cr2, {0}
f0001064:	ee8a3f32 	mcr	15, 4, r3, cr10, cr2, {1}
f0001068:	ee9a4f12 	mrc	15, 4, r4, cr10, cr2, {0}
f000106c:	e59f02c4 	ldr	r0, [pc, #708]	; f0001338 <hvmm_mm_init+0x38c>
f0001070:	ebfffe7f 	bl	f0000a74 <uart_print>
f0001074:	e1a00004 	mov	r0, r4
f0001078:	ebfffe8b 	bl	f0000aac <uart_print_hex32>
f000107c:	e59f02b8 	ldr	r0, [pc, #696]	; f000133c <hvmm_mm_init+0x390>
f0001080:	ebfffe7b 	bl	f0000a74 <uart_print>
f0001084:	ee9a4f32 	mrc	15, 4, r4, cr10, cr2, {1}
f0001088:	e59f02b0 	ldr	r0, [pc, #688]	; f0001340 <hvmm_mm_init+0x394>
f000108c:	ebfffe78 	bl	f0000a74 <uart_print>
f0001090:	e1a00004 	mov	r0, r4
f0001094:	ebfffe84 	bl	f0000aac <uart_print_hex32>
f0001098:	e59f029c 	ldr	r0, [pc, #668]	; f000133c <hvmm_mm_init+0x390>
f000109c:	ebfffe74 	bl	f0000a74 <uart_print>
f00010a0:	ee9a4f12 	mrc	15, 4, r4, cr10, cr2, {0}
f00010a4:	e59f0298 	ldr	r0, [pc, #664]	; f0001344 <hvmm_mm_init+0x398>
f00010a8:	ebfffe71 	bl	f0000a74 <uart_print>
f00010ac:	e1a00004 	mov	r0, r4
f00010b0:	ebfffe7d 	bl	f0000aac <uart_print_hex32>
f00010b4:	e59f0280 	ldr	r0, [pc, #640]	; f000133c <hvmm_mm_init+0x390>
f00010b8:	ebfffe6d 	bl	f0000a74 <uart_print>
f00010bc:	ee9a4f32 	mrc	15, 4, r4, cr10, cr2, {1}
f00010c0:	e59f0280 	ldr	r0, [pc, #640]	; f0001348 <hvmm_mm_init+0x39c>
f00010c4:	ebfffe6a 	bl	f0000a74 <uart_print>
f00010c8:	e1a00004 	mov	r0, r4
f00010cc:	ebfffe76 	bl	f0000aac <uart_print_hex32>
f00010d0:	e59f0264 	ldr	r0, [pc, #612]	; f000133c <hvmm_mm_init+0x390>
f00010d4:	ebfffe66 	bl	f0000a74 <uart_print>
f00010d8:	e59f026c 	ldr	r0, [pc, #620]	; f000134c <hvmm_mm_init+0x3a0>
f00010dc:	ebfffe64 	bl	f0000a74 <uart_print>
f00010e0:	ee924f50 	mrc	15, 4, r4, cr2, cr0, {2}
f00010e4:	e59f0264 	ldr	r0, [pc, #612]	; f0001350 <hvmm_mm_init+0x3a4>
f00010e8:	ebfffe61 	bl	f0000a74 <uart_print>
f00010ec:	e1a00004 	mov	r0, r4
f00010f0:	ebfffe6d 	bl	f0000aac <uart_print_hex32>
f00010f4:	e59f0240 	ldr	r0, [pc, #576]	; f000133c <hvmm_mm_init+0x390>
f00010f8:	ebfffe5d 	bl	f0000a74 <uart_print>
f00010fc:	e3a03c25 	mov	r3, #9472	; 0x2500
f0001100:	e3483000 	movt	r3, #32768	; 0x8000
f0001104:	ee823f50 	mcr	15, 4, r3, cr2, cr0, {2}
f0001108:	ee924f50 	mrc	15, 4, r4, cr2, cr0, {2}
f000110c:	e59f023c 	ldr	r0, [pc, #572]	; f0001350 <hvmm_mm_init+0x3a4>
f0001110:	ebfffe57 	bl	f0000a74 <uart_print>
f0001114:	e1a00004 	mov	r0, r4
f0001118:	ebfffe63 	bl	f0000aac <uart_print_hex32>
f000111c:	e59f0218 	ldr	r0, [pc, #536]	; f000133c <hvmm_mm_init+0x390>
f0001120:	ebfffe53 	bl	f0000a74 <uart_print>
f0001124:	ee914f10 	mrc	15, 4, r4, cr1, cr0, {0}
f0001128:	e59f0224 	ldr	r0, [pc, #548]	; f0001354 <hvmm_mm_init+0x3a8>
f000112c:	ebfffe50 	bl	f0000a74 <uart_print>
f0001130:	e1a00004 	mov	r0, r4
f0001134:	ebfffe5c 	bl	f0000aac <uart_print_hex32>
f0001138:	e59f01fc 	ldr	r0, [pc, #508]	; f000133c <hvmm_mm_init+0x390>
f000113c:	ebfffe4c 	bl	f0000a74 <uart_print>
f0001140:	e301387a 	movw	r3, #6266	; 0x187a
f0001144:	e34330c5 	movt	r3, #12485	; 0x30c5
f0001148:	ee813f10 	mcr	15, 4, r3, cr1, cr0, {0}
f000114c:	ee914f10 	mrc	15, 4, r4, cr1, cr0, {0}
f0001150:	e59f01fc 	ldr	r0, [pc, #508]	; f0001354 <hvmm_mm_init+0x3a8>
f0001154:	ebfffe46 	bl	f0000a74 <uart_print>
f0001158:	e1a00004 	mov	r0, r4
f000115c:	ebfffe52 	bl	f0000aac <uart_print_hex32>
f0001160:	e59f01d4 	ldr	r0, [pc, #468]	; f000133c <hvmm_mm_init+0x390>
f0001164:	ebfffe42 	bl	f0000a74 <uart_print>
f0001168:	ee924f51 	mrc	15, 4, r4, cr2, cr1, {2}
f000116c:	e59f01e4 	ldr	r0, [pc, #484]	; f0001358 <hvmm_mm_init+0x3ac>
f0001170:	ebfffe3f 	bl	f0000a74 <uart_print>
f0001174:	e1a00004 	mov	r0, r4
f0001178:	e3c44d3f 	bic	r4, r4, #4032	; 0xfc0
f000117c:	ebfffe4a 	bl	f0000aac <uart_print_hex32>
f0001180:	e59f01b4 	ldr	r0, [pc, #436]	; f000133c <hvmm_mm_init+0x390>
f0001184:	e3844c0f 	orr	r4, r4, #3840	; 0xf00
f0001188:	ebfffe39 	bl	f0000a74 <uart_print>
f000118c:	ee824f51 	mcr	15, 4, r4, cr2, cr1, {2}
f0001190:	ee924f51 	mrc	15, 4, r4, cr2, cr1, {2}
f0001194:	e59f01bc 	ldr	r0, [pc, #444]	; f0001358 <hvmm_mm_init+0x3ac>
f0001198:	ebfffe35 	bl	f0000a74 <uart_print>
f000119c:	e1a00004 	mov	r0, r4
f00011a0:	ebfffe41 	bl	f0000aac <uart_print_hex32>
f00011a4:	e59f0190 	ldr	r0, [pc, #400]	; f000133c <hvmm_mm_init+0x390>
f00011a8:	ebfffe31 	bl	f0000a74 <uart_print>
f00011ac:	e31400c0 	tst	r4, #192	; 0xc0
f00011b0:	e204400f 	and	r4, r4, #15
f00011b4:	e59f01a0 	ldr	r0, [pc, #416]	; f000135c <hvmm_mm_init+0x3b0>
f00011b8:	0264400e 	rsbeq	r4, r4, #14
f00011bc:	12644005 	rsbne	r4, r4, #5
f00011c0:	ebfffe2b 	bl	f0000a74 <uart_print>
f00011c4:	e1a00004 	mov	r0, r4
f00011c8:	ebfffe37 	bl	f0000aac <uart_print_hex32>
f00011cc:	e59f0168 	ldr	r0, [pc, #360]	; f000133c <hvmm_mm_init+0x390>
f00011d0:	ebfffe27 	bl	f0000a74 <uart_print>
f00011d4:	ec523f62 	mrrc	15, 6, r3, r2, cr2
f00011d8:	e3a04000 	mov	r4, #0
f00011dc:	e59f017c 	ldr	r0, [pc, #380]	; f0001360 <hvmm_mm_init+0x3b4>
f00011e0:	e0946003 	adds	r6, r4, r3
f00011e4:	e2a27000 	adc	r7, r2, #0
f00011e8:	ebfffe21 	bl	f0000a74 <uart_print>
f00011ec:	e1a00006 	mov	r0, r6
f00011f0:	e1a01007 	mov	r1, r7
f00011f4:	ebfffe43 	bl	f0000b08 <uart_print_hex64>
f00011f8:	e59f013c 	ldr	r0, [pc, #316]	; f000133c <hvmm_mm_init+0x390>
f00011fc:	ebfffe1c 	bl	f0000a74 <uart_print>
f0001200:	ee915f11 	mrc	15, 4, r5, cr1, cr1, {0}
f0001204:	e59f0158 	ldr	r0, [pc, #344]	; f0001364 <hvmm_mm_init+0x3b8>
f0001208:	ebfffe19 	bl	f0000a74 <uart_print>
f000120c:	e1a00005 	mov	r0, r5
f0001210:	ebfffe25 	bl	f0000aac <uart_print_hex32>
f0001214:	e59f0120 	ldr	r0, [pc, #288]	; f000133c <hvmm_mm_init+0x390>
f0001218:	ebfffe15 	bl	f0000a74 <uart_print>
f000121c:	ec5c1f42 	mrrc	15, 4, r1, ip, cr2
f0001220:	e0946001 	adds	r6, r4, r1
f0001224:	e59f013c 	ldr	r0, [pc, #316]	; f0001368 <hvmm_mm_init+0x3bc>
f0001228:	e3a0a000 	mov	sl, #0
f000122c:	e2ac7000 	adc	r7, ip, #0
f0001230:	e3e0b000 	mvn	fp, #0
f0001234:	ebfffe0e 	bl	f0000a74 <uart_print>
f0001238:	e1a01007 	mov	r1, r7
f000123c:	e1a00006 	mov	r0, r6
f0001240:	ebfffe30 	bl	f0000b08 <uart_print_hex64>
f0001244:	e59f00f0 	ldr	r0, [pc, #240]	; f000133c <hvmm_mm_init+0x390>
f0001248:	e006600a 	and	r6, r6, sl
f000124c:	e3a08a0f 	mov	r8, #61440	; 0xf000
f0001250:	ebfffe07 	bl	f0000a74 <uart_print>
f0001254:	e59f3110 	ldr	r3, [pc, #272]	; f000136c <hvmm_mm_init+0x3c0>
f0001258:	e007700b 	and	r7, r7, fp
f000125c:	e34f8fff 	movt	r8, #65535	; 0xffff
f0001260:	e3a090ff 	mov	r9, #255	; 0xff
f0001264:	e59f0104 	ldr	r0, [pc, #260]	; f0001370 <hvmm_mm_init+0x3c4>
f0001268:	e0099007 	and	r9, r9, r7
f000126c:	e186a003 	orr	sl, r6, r3
f0001270:	e1a06009 	mov	r6, r9
f0001274:	e008800a 	and	r8, r8, sl
f0001278:	ebfffdfd 	bl	f0000a74 <uart_print>
f000127c:	e1a00008 	mov	r0, r8
f0001280:	e1a01009 	mov	r1, r9
f0001284:	ebfffe1f 	bl	f0000b08 <uart_print_hex64>
f0001288:	e59f00ac 	ldr	r0, [pc, #172]	; f000133c <hvmm_mm_init+0x390>
f000128c:	ebfffdf8 	bl	f0000a74 <uart_print>
f0001290:	e3a02a0f 	mov	r2, #61440	; 0xf000
f0001294:	e3a03000 	mov	r3, #0
f0001298:	e34f2fff 	movt	r2, #65535	; 0xffff
f000129c:	e007b003 	and	fp, r7, r3
f00012a0:	e00aa002 	and	sl, sl, r2
f00012a4:	e1a07004 	mov	r7, r4
f00012a8:	ec46af42 	mcrr	15, 4, sl, r6, cr2
f00012ac:	ec5c1f42 	mrrc	15, 4, r1, ip, cr2
f00012b0:	e0944001 	adds	r4, r4, r1
f00012b4:	e59f00b8 	ldr	r0, [pc, #184]	; f0001374 <hvmm_mm_init+0x3c8>
f00012b8:	e2ac5000 	adc	r5, ip, #0
f00012bc:	ebfffdec 	bl	f0000a74 <uart_print>
f00012c0:	e1a00004 	mov	r0, r4
f00012c4:	e1a01005 	mov	r1, r5
f00012c8:	ebfffe0e 	bl	f0000b08 <uart_print_hex64>
f00012cc:	e59f0068 	ldr	r0, [pc, #104]	; f000133c <hvmm_mm_init+0x390>
f00012d0:	ebfffde7 	bl	f0000a74 <uart_print>
f00012d4:	ee914f10 	mrc	15, 4, r4, cr1, cr0, {0}
f00012d8:	e59f0074 	ldr	r0, [pc, #116]	; f0001354 <hvmm_mm_init+0x3a8>
f00012dc:	ebfffde4 	bl	f0000a74 <uart_print>
f00012e0:	e1a00004 	mov	r0, r4
f00012e4:	ebfffdf0 	bl	f0000aac <uart_print_hex32>
f00012e8:	e59f004c 	ldr	r0, [pc, #76]	; f000133c <hvmm_mm_init+0x390>
f00012ec:	ebfffde0 	bl	f0000a74 <uart_print>
f00012f0:	f57ff04f 	dsb	sy
f00012f4:	e3844001 	orr	r4, r4, #1
f00012f8:	ee814f10 	mcr	15, 4, r4, cr1, cr0, {0}
f00012fc:	f57ff06f 	isb	sy
f0001300:	ee914f10 	mrc	15, 4, r4, cr1, cr0, {0}
f0001304:	e59f0048 	ldr	r0, [pc, #72]	; f0001354 <hvmm_mm_init+0x3a8>
f0001308:	ebfffdd9 	bl	f0000a74 <uart_print>
f000130c:	e1a00004 	mov	r0, r4
f0001310:	ebfffde5 	bl	f0000aac <uart_print_hex32>
f0001314:	e59f0020 	ldr	r0, [pc, #32]	; f000133c <hvmm_mm_init+0x390>
f0001318:	ebfffdd5 	bl	f0000a74 <uart_print>
f000131c:	e59f0054 	ldr	r0, [pc, #84]	; f0001378 <hvmm_mm_init+0x3cc>
f0001320:	ebfffdd3 	bl	f0000a74 <uart_print>
f0001324:	e8bd8ff8 	pop	{r3, r4, r5, r6, r7, r8, r9, sl, fp, pc}
f0001328:	f0001838 			; <UNDEFINED> instruction: 0xf0001838
f000132c:	f0004000 			; <UNDEFINED> instruction: 0xf0004000
f0001330:	f0003000 			; <UNDEFINED> instruction: 0xf0003000
f0001334:	f0001850 			; <UNDEFINED> instruction: 0xf0001850
f0001338:	f0001864 			; <UNDEFINED> instruction: 0xf0001864
f000133c:	f00014fc 			; <UNDEFINED> instruction: 0xf00014fc
f0001340:	f000186c 			; <UNDEFINED> instruction: 0xf000186c
f0001344:	f0001874 			; <UNDEFINED> instruction: 0xf0001874
f0001348:	f000187c 			; <UNDEFINED> instruction: 0xf000187c
f000134c:	f0001884 			; <UNDEFINED> instruction: 0xf0001884
f0001350:	f0001898 			; <UNDEFINED> instruction: 0xf0001898
f0001354:	f00018a0 			; <UNDEFINED> instruction: 0xf00018a0
f0001358:	f00018a8 			; <UNDEFINED> instruction: 0xf00018a8
f000135c:	f00018b0 			; <UNDEFINED> instruction: 0xf00018b0
f0001360:	f00017a4 			; <UNDEFINED> instruction: 0xf00017a4
f0001364:	f00018c0 			; <UNDEFINED> instruction: 0xf00018c0
f0001368:	f00018d0 			; <UNDEFINED> instruction: 0xf00018d0
f000136c:	f0006000 			; <UNDEFINED> instruction: 0xf0006000
f0001370:	f00018c8 			; <UNDEFINED> instruction: 0xf00018c8
f0001374:	f00018d8 			; <UNDEFINED> instruction: 0xf00018d8
f0001378:	f00018ec 			; <UNDEFINED> instruction: 0xf00018ec

f000137c <timer_init>:
f000137c:	e3a00000 	mov	r0, #0
f0001380:	e12fff1e 	bx	lr

f0001384 <gic_dump_registers>:
f0001384:	e92d4038 	push	{r3, r4, r5, lr}
f0001388:	ee904f10 	mrc	15, 4, r4, cr0, cr0, {0}
f000138c:	e59f0114 	ldr	r0, [pc, #276]	; f00014a8 <gic_dump_registers+0x124>
f0001390:	ebfffdb7 	bl	f0000a74 <uart_print>
f0001394:	e1a00004 	mov	r0, r4
f0001398:	ebfffdc3 	bl	f0000aac <uart_print_hex32>
f000139c:	e59f0108 	ldr	r0, [pc, #264]	; f00014ac <gic_dump_registers+0x128>
f00013a0:	ebfffdb3 	bl	f0000a74 <uart_print>
f00013a4:	e30f3ff0 	movw	r3, #65520	; 0xfff0
f00013a8:	e30c20f0 	movw	r2, #49392	; 0xc0f0
f00013ac:	e0043003 	and	r3, r4, r3
f00013b0:	e1530002 	cmp	r3, r2
f00013b4:	18bd8038 	popne	{r3, r4, r5, pc}
f00013b8:	ee9f4f10 	mrc	15, 4, r4, cr15, cr0, {0}
f00013bc:	e59f00ec 	ldr	r0, [pc, #236]	; f00014b0 <gic_dump_registers+0x12c>
f00013c0:	e2845a01 	add	r5, r4, #4096	; 0x1000
f00013c4:	ebfffdaa 	bl	f0000a74 <uart_print>
f00013c8:	e1a00004 	mov	r0, r4
f00013cc:	ebfffdb6 	bl	f0000aac <uart_print_hex32>
f00013d0:	e59f00d4 	ldr	r0, [pc, #212]	; f00014ac <gic_dump_registers+0x128>
f00013d4:	ebfffda6 	bl	f0000a74 <uart_print>
f00013d8:	e59f00d4 	ldr	r0, [pc, #212]	; f00014b4 <gic_dump_registers+0x130>
f00013dc:	ebfffda4 	bl	f0000a74 <uart_print>
f00013e0:	e1a00005 	mov	r0, r5
f00013e4:	ebfffdb0 	bl	f0000aac <uart_print_hex32>
f00013e8:	e59f00bc 	ldr	r0, [pc, #188]	; f00014ac <gic_dump_registers+0x128>
f00013ec:	ebfffda0 	bl	f0000a74 <uart_print>
f00013f0:	e59f00c0 	ldr	r0, [pc, #192]	; f00014b8 <gic_dump_registers+0x134>
f00013f4:	ebfffd9e 	bl	f0000a74 <uart_print>
f00013f8:	e2840a02 	add	r0, r4, #8192	; 0x2000
f00013fc:	ebfffdaa 	bl	f0000aac <uart_print_hex32>
f0001400:	e59f00a4 	ldr	r0, [pc, #164]	; f00014ac <gic_dump_registers+0x128>
f0001404:	ebfffd9a 	bl	f0000a74 <uart_print>
f0001408:	e59f00ac 	ldr	r0, [pc, #172]	; f00014bc <gic_dump_registers+0x138>
f000140c:	ebfffd98 	bl	f0000a74 <uart_print>
f0001410:	e2840901 	add	r0, r4, #16384	; 0x4000
f0001414:	ebfffda4 	bl	f0000aac <uart_print_hex32>
f0001418:	e59f008c 	ldr	r0, [pc, #140]	; f00014ac <gic_dump_registers+0x128>
f000141c:	ebfffd94 	bl	f0000a74 <uart_print>
f0001420:	e59f0098 	ldr	r0, [pc, #152]	; f00014c0 <gic_dump_registers+0x13c>
f0001424:	ebfffd92 	bl	f0000a74 <uart_print>
f0001428:	e2840a05 	add	r0, r4, #20480	; 0x5000
f000142c:	ebfffd9e 	bl	f0000aac <uart_print_hex32>
f0001430:	e59f0074 	ldr	r0, [pc, #116]	; f00014ac <gic_dump_registers+0x128>
f0001434:	ebfffd8e 	bl	f0000a74 <uart_print>
f0001438:	e59f0084 	ldr	r0, [pc, #132]	; f00014c4 <gic_dump_registers+0x140>
f000143c:	ebfffd8c 	bl	f0000a74 <uart_print>
f0001440:	e2840a06 	add	r0, r4, #24576	; 0x6000
f0001444:	ebfffd98 	bl	f0000aac <uart_print_hex32>
f0001448:	e59f005c 	ldr	r0, [pc, #92]	; f00014ac <gic_dump_registers+0x128>
f000144c:	ebfffd88 	bl	f0000a74 <uart_print>
f0001450:	e5954000 	ldr	r4, [r5]
f0001454:	e59f006c 	ldr	r0, [pc, #108]	; f00014c8 <gic_dump_registers+0x144>
f0001458:	ebfffd85 	bl	f0000a74 <uart_print>
f000145c:	e1a00004 	mov	r0, r4
f0001460:	ebfffd91 	bl	f0000aac <uart_print_hex32>
f0001464:	e59f0040 	ldr	r0, [pc, #64]	; f00014ac <gic_dump_registers+0x128>
f0001468:	ebfffd81 	bl	f0000a74 <uart_print>
f000146c:	e5954004 	ldr	r4, [r5, #4]
f0001470:	e59f0054 	ldr	r0, [pc, #84]	; f00014cc <gic_dump_registers+0x148>
f0001474:	ebfffd7e 	bl	f0000a74 <uart_print>
f0001478:	e1a00004 	mov	r0, r4
f000147c:	ebfffd8a 	bl	f0000aac <uart_print_hex32>
f0001480:	e59f0024 	ldr	r0, [pc, #36]	; f00014ac <gic_dump_registers+0x128>
f0001484:	ebfffd7a 	bl	f0000a74 <uart_print>
f0001488:	e5954008 	ldr	r4, [r5, #8]
f000148c:	e59f003c 	ldr	r0, [pc, #60]	; f00014d0 <gic_dump_registers+0x14c>
f0001490:	ebfffd77 	bl	f0000a74 <uart_print>
f0001494:	e1a00004 	mov	r0, r4
f0001498:	ebfffd83 	bl	f0000aac <uart_print_hex32>
f000149c:	e59f0008 	ldr	r0, [pc, #8]	; f00014ac <gic_dump_registers+0x128>
f00014a0:	e8bd4038 	pop	{r3, r4, r5, lr}
f00014a4:	eafffd72 	b	f0000a74 <uart_print>
f00014a8:	f0001904 			; <UNDEFINED> instruction: 0xf0001904
f00014ac:	f00014fc 			; <UNDEFINED> instruction: 0xf00014fc
f00014b0:	f000190c 			; <UNDEFINED> instruction: 0xf000190c
f00014b4:	f0001914 			; <UNDEFINED> instruction: 0xf0001914
f00014b8:	f0001920 			; <UNDEFINED> instruction: 0xf0001920
f00014bc:	f000192c 			; <UNDEFINED> instruction: 0xf000192c
f00014c0:	f0001938 			; <UNDEFINED> instruction: 0xf0001938
f00014c4:	f0001944 			; <UNDEFINED> instruction: 0xf0001944
f00014c8:	f0001950 			; <UNDEFINED> instruction: 0xf0001950
f00014cc:	f000195c 			; <UNDEFINED> instruction: 0xf000195c
f00014d0:	f0001968 			; <UNDEFINED> instruction: 0xf0001968

f00014d4 <gic_init>:
f00014d4:	e92d4008 	push	{r3, lr}
f00014d8:	ebffffa9 	bl	f0001384 <gic_dump_registers>
f00014dc:	e3a00000 	mov	r0, #0
f00014e0:	e8bd8008 	pop	{r3, pc}

f00014e4 <hvmm_interrupt_init>:
f00014e4:	eafffffa 	b	f00014d4 <gic_init>

Disassembly of section .rodata.str1.4:

f00014e8 <.rodata.str1.4>:
f00014e8:	6365735b 	cmnvs	r5, #1811939329	; 0x6c000001
f00014ec:	5d657275 	sfmpl	f7, 2, [r5, #-468]!	; 0xfffffe2c
f00014f0:	61745320 	cmnvs	r4, r0, lsr #6
f00014f4:	6e697472 	mcrvs	4, 3, r7, cr9, cr2, {3}
f00014f8:	2e2e2e67 	cdpcs	14, 2, cr2, cr14, cr7, {3}
f00014fc:	00000d0a 	andeq	r0, r0, sl, lsl #26
f0001500:	6d726e5b 	ldclvs	14, cr6, [r2, #-364]!	; 0xfffffe94
f0001504:	6e65205d 	mcrvs	0, 3, r2, cr5, cr13, {2}
f0001508:	0a726574 	beq	f1c9aae0 <_hmm_pgtable+0x1c94ae0>
f000150c:	0000000d 	andeq	r0, r0, sp
f0001510:	6d726e5b 	ldclvs	14, cr6, [r2, #-364]!	; 0xfffffe94
f0001514:	7063205d 	rsbvc	r2, r3, sp, asr r0
f0001518:	003a7273 	eorseq	r7, sl, r3, ror r2
f000151c:	6d726e5b 	ldclvs	14, cr6, [r2, #-364]!	; 0xfffffe94
f0001520:	6970205d 	ldmdbvs	r0!, {r0, r2, r3, r4, r6, sp}^
f0001524:	3120676e 	teqcc	r0, lr, ror #14
f0001528:	00000d0a 	andeq	r0, r0, sl, lsl #26
f000152c:	6d726e5b 	ldclvs	14, cr6, [r2, #-364]!	; 0xfffffe94
f0001530:	6979205d 	ldmdbvs	r9!, {r0, r2, r3, r4, r6, sp}^
f0001534:	20646c65 	rsbcs	r6, r4, r5, ror #24
f0001538:	000d0a32 	andeq	r0, sp, r2, lsr sl
f000153c:	6d726e5b 	ldclvs	14, cr6, [r2, #-364]!	; 0xfffffe94
f0001540:	6162205d 	qdsubvs	r2, sp, r2
f0001544:	33206b63 	teqcc	r0, #101376	; 0x18c00
f0001548:	00000d0a 	andeq	r0, r0, sl, lsl #26
f000154c:	6d726e5b 	ldclvs	14, cr6, [r2, #-364]!	; 0xfffffe94
f0001550:	6f64205d 	svcvs	0x0064205d
f0001554:	0d0a656e 	cfstr32eq	mvfx6, [sl, #-440]	; 0xfffffe48
f0001558:	00000000 	andeq	r0, r0, r0
f000155c:	72737063 	rsbsvc	r7, r3, #99	; 0x63
f0001560:	0000003a 	andeq	r0, r0, sl, lsr r0
f0001564:	003a6370 	eorseq	r6, sl, r0, ror r3
f0001568:	003a7073 	eorseq	r7, sl, r3, ror r0
f000156c:	6376685b 	cmnvs	r6, #5963776	; 0x5b0000
f0001570:	685f205d 	ldmdavs	pc, {r0, r2, r3, r4, r6, sp}^	; <UNPREDICTABLE>
f0001574:	685f7079 	ldmdavs	pc, {r0, r3, r4, r5, r6, ip, sp, lr}^	; <UNPREDICTABLE>
f0001578:	735f6376 	cmpvc	pc, #-671088639	; 0xd8000001
f000157c:	69767265 	ldmdbvs	r6!, {r0, r2, r5, r6, r9, ip, sp, lr}^
f0001580:	203a6563 	eorscs	r6, sl, r3, ror #10
f0001584:	65746e65 	ldrbvs	r6, [r4, #-3685]!	; 0xe65
f0001588:	000d0a72 	andeq	r0, sp, r2, ror sl
f000158c:	6376685b 	cmnvs	r6, #5963776	; 0x5b0000
f0001590:	6e65205d 	mcrvs	0, 3, r2, cr5, cr13, {2}
f0001594:	20726574 	rsbscs	r6, r2, r4, ror r5
f0001598:	0a707968 	beq	f1c1fb40 <_hmm_pgtable+0x1c19b40>
f000159c:	0000000d 	andeq	r0, r0, sp
f00015a0:	7079685b 	rsbsvc	r6, r9, fp, asr r8
f00015a4:	685f205d 	ldmdavs	pc, {r0, r2, r3, r4, r6, sp}^	; <UNPREDICTABLE>
f00015a8:	685f7079 	ldmdavs	pc, {r0, r3, r4, r5, r6, ip, sp, lr}^	; <UNPREDICTABLE>
f00015ac:	735f6376 	cmpvc	pc, #-671088639	; 0xd8000001
f00015b0:	69767265 	ldmdbvs	r6!, {r0, r2, r5, r6, r9, ip, sp, lr}^
f00015b4:	703a6563 	eorsvc	r6, sl, r3, ror #10
f00015b8:	0a676e69 	beq	f19dcf64 <_hmm_pgtable+0x19d6f64>
f00015bc:	0000000d 	andeq	r0, r0, sp
f00015c0:	7079685b 	rsbsvc	r6, r9, fp, asr r8
f00015c4:	685f205d 	ldmdavs	pc, {r0, r2, r3, r4, r6, sp}^	; <UNPREDICTABLE>
f00015c8:	685f7079 	ldmdavs	pc, {r0, r3, r4, r5, r6, ip, sp, lr}^	; <UNPREDICTABLE>
f00015cc:	735f6376 	cmpvc	pc, #-671088639	; 0xd8000001
f00015d0:	69767265 	ldmdbvs	r6!, {r0, r2, r5, r6, r9, ip, sp, lr}^
f00015d4:	793a6563 	ldmdbvc	sl!, {r0, r1, r5, r6, r8, sl, sp, lr}
f00015d8:	646c6569 	strbtvs	r6, [ip], #-1385	; 0x569
f00015dc:	00000d0a 	andeq	r0, r0, sl, lsl #26
f00015e0:	7079685b 	rsbsvc	r6, r9, fp, asr r8
f00015e4:	685f205d 	ldmdavs	pc, {r0, r2, r3, r4, r6, sp}^	; <UNPREDICTABLE>
f00015e8:	685f7079 	ldmdavs	pc, {r0, r3, r4, r5, r6, ip, sp, lr}^	; <UNPREDICTABLE>
f00015ec:	735f6376 	cmpvc	pc, #-671088639	; 0xd8000001
f00015f0:	69767265 	ldmdbvs	r6!, {r0, r2, r5, r6, r9, ip, sp, lr}^
f00015f4:	753a6563 	ldrvc	r6, [sl, #-1379]!	; 0x563
f00015f8:	6f6e6b6e 	svcvs	0x006e6b6e
f00015fc:	68206e77 	stmdavs	r0!, {r0, r1, r2, r4, r5, r6, r9, sl, fp, sp, lr}
f0001600:	692e7273 	stmdbvs	lr!, {r0, r1, r4, r5, r6, r9, ip, sp, lr}
f0001604:	003d7373 	eorseq	r7, sp, r3, ror r3
f0001608:	7079685b 	rsbsvc	r6, r9, fp, asr r8
f000160c:	7368205d 	cmnvc	r8, #93	; 0x5d
f0001610:	63652e72 	cmnvs	r5, #1824	; 0x720
f0001614:	0000003d 	andeq	r0, r0, sp, lsr r0
f0001618:	7079685b 	rsbsvc	r6, r9, fp, asr r8
f000161c:	7368205d 	cmnvc	r8, #93	; 0x5d
f0001620:	00003d72 	andeq	r3, r0, r2, ror sp
f0001624:	7079685b 	rsbsvc	r6, r9, fp, asr r8
f0001628:	685f205d 	ldmdavs	pc, {r0, r2, r3, r4, r6, sp}^	; <UNPREDICTABLE>
f000162c:	685f7079 	ldmdavs	pc, {r0, r3, r4, r5, r6, ip, sp, lr}^	; <UNPREDICTABLE>
f0001630:	735f6376 	cmpvc	pc, #-671088639	; 0xd8000001
f0001634:	69767265 	ldmdbvs	r6!, {r0, r2, r5, r6, r9, ip, sp, lr}^
f0001638:	203a6563 	eorscs	r6, sl, r3, ror #10
f000163c:	656e6f64 	strbvs	r6, [lr, #-3940]!	; 0xf64
f0001640:	00000d0a 	andeq	r0, r0, sl, lsl #26
f0001644:	7079685b 	rsbsvc	r6, r9, fp, asr r8
f0001648:	6e69205d 	mcrvs	0, 3, r2, cr9, cr13, {2}
f000164c:	675f7469 	ldrbvs	r7, [pc, -r9, ror #8]
f0001650:	74736575 	ldrbtvc	r6, [r3], #-1397	; 0x575
f0001654:	65203a73 	strvs	r3, [r0, #-2675]!	; 0xa73
f0001658:	7265746e 	rsbvc	r7, r5, #1845493760	; 0x6e000000
f000165c:	00000d0a 	andeq	r0, r0, sl, lsl #26
f0001660:	7079685b 	rsbsvc	r6, r9, fp, asr r8
f0001664:	6e69205d 	mcrvs	0, 3, r2, cr9, cr13, {2}
f0001668:	675f7469 	ldrbvs	r7, [pc, -r9, ror #8]
f000166c:	74736575 	ldrbtvc	r6, [r3], #-1397	; 0x575
f0001670:	72203a73 	eorvc	r3, r0, #471040	; 0x73000
f0001674:	72757465 	rsbsvc	r7, r5, #1694498816	; 0x65000000
f0001678:	000d0a6e 	andeq	r0, sp, lr, ror #20
f000167c:	7079685b 	rsbsvc	r6, r9, fp, asr r8
f0001680:	7773205d 			; <UNDEFINED> instruction: 0x7773205d
f0001684:	68637469 	stmdavs	r3!, {r0, r3, r5, r6, sl, ip, sp, lr}^
f0001688:	5f6f745f 	svcpl	0x006f745f
f000168c:	74696e69 	strbtvc	r6, [r9], #-3689	; 0xe69
f0001690:	5f6c6169 	svcpl	0x006c6169
f0001694:	73657567 	cmnvc	r5, #432013312	; 0x19c00000
f0001698:	0d0a3a74 	vstreq	s6, [sl, #-464]	; 0xfffffe30
f000169c:	00000000 	andeq	r0, r0, r0
f00016a0:	7079685b 	rsbsvc	r6, r9, fp, asr r8
f00016a4:	7773205d 			; <UNDEFINED> instruction: 0x7773205d
f00016a8:	68637469 	stmdavs	r3!, {r0, r3, r5, r6, sl, ip, sp, lr}^
f00016ac:	6575675f 	ldrbvs	r6, [r5, #-1887]!	; 0x75f
f00016b0:	203a7473 	eorscs	r7, sl, r3, ror r4
f00016b4:	65746e65 	ldrbvs	r6, [r4, #-3685]!	; 0xe65
f00016b8:	6e202c72 	mcrvs	12, 1, r2, cr0, cr2, {3}
f00016bc:	6320746f 	teqvs	r0, #1862270976	; 0x6f000000
f00016c0:	6e696d6f 	cdpvs	13, 6, cr6, cr9, cr15, {3}
f00016c4:	61622067 	cmnvs	r2, r7, rrx
f00016c8:	0d0a6b63 	vstreq	d6, [sl, #-396]	; 0xfffffe74
f00016cc:	00000000 	andeq	r0, r0, r0
f00016d0:	7079685b 	rsbsvc	r6, r9, fp, asr r8
f00016d4:	69616d5f 	stmdbvs	r1!, {r0, r1, r2, r3, r4, r6, r8, sl, fp, sp, lr}^
f00016d8:	53205d6e 	teqpl	r0, #7040	; 0x1b80
f00016dc:	74726174 	ldrbtvc	r6, [r2], #-372	; 0x174
f00016e0:	2e676e69 	cdpcs	14, 6, cr6, cr7, cr9, {3}
f00016e4:	0d0a2e2e 	stceq	14, cr2, [sl, #-184]	; 0xffffff48
f00016e8:	00000000 	andeq	r0, r0, r0
f00016ec:	7079685b 	rsbsvc	r6, r9, fp, asr r8
f00016f0:	69616d5f 	stmdbvs	r1!, {r0, r1, r2, r3, r4, r6, r8, sl, fp, sp, lr}^
f00016f4:	69205d6e 	stmdbvs	r0!, {r1, r2, r3, r5, r6, r8, sl, fp, ip, lr}
f00016f8:	7265746e 	rsbvc	r7, r5, #1845493760	; 0x6e000000
f00016fc:	74707572 	ldrbtvc	r7, [r0], #-1394	; 0x572
f0001700:	696e6920 	stmdbvs	lr!, {r5, r8, fp, sp, lr}^
f0001704:	6c616974 	stclvs	9, cr6, [r1], #-464	; 0xfffffe30
f0001708:	74617a69 	strbtvc	r7, [r1], #-2665	; 0xa69
f000170c:	206e6f69 	rsbcs	r6, lr, r9, ror #30
f0001710:	6c696166 	stfvse	f6, [r9], #-408	; 0xfffffe68
f0001714:	2e2e6465 	cdpcs	4, 2, cr6, cr14, cr5, {3}
f0001718:	000d0a2e 	andeq	r0, sp, lr, lsr #20
f000171c:	7079685b 	rsbsvc	r6, r9, fp, asr r8
f0001720:	69616d5f 	stmdbvs	r1!, {r0, r1, r2, r3, r4, r6, r8, sl, fp, sp, lr}^
f0001724:	45205d6e 	strmi	r5, [r0, #-3438]!	; 0xd6e
f0001728:	524f5252 	subpl	r5, pc, #536870917	; 0x20000005
f000172c:	4f43203a 	svcmi	0x0043203a
f0001730:	4d204544 	cfstr32mi	mvfx4, [r0, #-272]!	; 0xfffffef0
f0001734:	20545355 	subscs	r5, r4, r5, asr r3
f0001738:	20544f4e 	subscs	r4, r4, lr, asr #30
f000173c:	43414552 	movtmi	r4, #5458	; 0x1552
f0001740:	45482048 	strbmi	r2, [r8, #-72]	; 0x48
f0001744:	0d0a4552 	cfstr32eq	mvfx4, [sl, #-328]	; 0xfffffeb8
f0001748:	00000000 	andeq	r0, r0, r0
f000174c:	6e6f6d5b 	mcrvs	13, 3, r6, cr15, cr11, {2}
f0001750:	726f7469 	rsbvc	r7, pc, #1761607680	; 0x69000000
f0001754:	6e65205d 	mcrvs	0, 3, r2, cr5, cr13, {2}
f0001758:	5f726574 	svcpl	0x00726574
f000175c:	3a707968 	bcc	f1c1fd04 <_hmm_pgtable+0x1c19d04>
f0001760:	746e6520 	strbtvc	r6, [lr], #-1312	; 0x520
f0001764:	6e697265 	cdpvs	2, 6, cr7, cr9, cr5, {3}
f0001768:	79682067 	stmdbvc	r8!, {r0, r1, r2, r5, r6, sp}^
f000176c:	6f6d2070 	svcvs	0x006d2070
f0001770:	202e6564 	eorcs	r6, lr, r4, ror #10
f0001774:	20746f6e 	rsbscs	r6, r4, lr, ror #30
f0001778:	696d6f63 	stmdbvs	sp!, {r0, r1, r5, r6, r8, r9, sl, fp, sp, lr}^
f000177c:	6220676e 	eorvs	r6, r0, #28835840	; 0x1b80000
f0001780:	0a6b6361 	beq	f1ada50c <_hmm_pgtable+0x1ad450c>
f0001784:	0000000d 	andeq	r0, r0, sp
f0001788:	00007830 	andeq	r7, r0, r0, lsr r8
f000178c:	72727563 	rsbsvc	r7, r2, #415236096	; 0x18c00000
f0001790:	20746e65 	rsbscs	r6, r4, r5, ror #28
f0001794:	62747476 	rsbsvs	r7, r4, #1979711488	; 0x76000000
f0001798:	00003a72 	andeq	r3, r0, r2, ror sl
f000179c:	6e616863 	cdpvs	8, 6, cr6, cr1, cr3, {3}
f00017a0:	20646567 	rsbcs	r6, r4, r7, ror #10
f00017a4:	62747476 	rsbsvs	r7, r4, #1979711488	; 0x76000000
f00017a8:	00003a72 	andeq	r3, r0, r2, ror sl
f00017ac:	5d6d6d5b 	stclpl	13, cr6, [sp, #-364]!	; 0xfffffe94
f00017b0:	6d766820 	ldclvs	8, cr6, [r6, #-128]!	; 0xffffff80
f00017b4:	6d6d5f6d 	stclvs	15, cr5, [sp, #-436]!	; 0xfffffe4c
f00017b8:	61706c5f 	cmnvs	r0, pc, asr ip
f00017bc:	6c5f6465 	cfldrdvs	mvd6, [pc], {101}	; 0x65
f00017c0:	6c625f31 	stclvs	15, cr5, [r2], #-196	; 0xffffff3c
f00017c4:	3a6b636f 	bcc	f1ada588 <_hmm_pgtable+0x1ad4588>
f00017c8:	00000d0a 	andeq	r0, r0, sl, lsl #26
f00017cc:	3a617020 	bcc	f185d854 <_hmm_pgtable+0x1857854>
f00017d0:	00000000 	andeq	r0, r0, r0
f00017d4:	74746120 	ldrbtvc	r6, [r4], #-288	; 0x120
f00017d8:	64695f72 	strbtvs	r5, [r9], #-3954	; 0xf72
f00017dc:	00003a78 	andeq	r3, r0, r8, ror sl
f00017e0:	6d685f26 	stclvs	15, cr5, [r8, #-152]!	; 0xffffff68
f00017e4:	67705f6d 	ldrbvs	r5, [r0, -sp, ror #30]!
f00017e8:	6c626174 	stfvse	f6, [r2], #-464	; 0xfffffe30
f00017ec:	5d305b65 	fldmdbxpl	r0!, {d5-d54}	;@ Deprecated
f00017f0:	0000003a 	andeq	r0, r0, sl, lsr r0
f00017f4:	6561706c 	strbvs	r7, [r1, #-108]!	; 0x6c
f00017f8:	00003a64 	andeq	r3, r0, r4, ror #20
f00017fc:	6d685f26 	stclvs	15, cr5, [r8, #-152]!	; 0xffffff68
f0001800:	67705f6d 	ldrbvs	r5, [r0, -sp, ror #30]!
f0001804:	6c626174 	stfvse	f6, [r2], #-464	; 0xfffffe30
f0001808:	5d315b65 	fldmdbxpl	r1!, {d5-d54}	;@ Deprecated
f000180c:	0000003a 	andeq	r0, r0, sl, lsr r0
f0001810:	6d685f26 	stclvs	15, cr5, [r8, #-152]!	; 0xffffff68
f0001814:	67705f6d 	ldrbvs	r5, [r0, -sp, ror #30]!
f0001818:	6c626174 	stfvse	f6, [r2], #-464	; 0xfffffe30
f000181c:	5d325b65 	fldmdbxpl	r2!, {d5-d54}	;@ Deprecated
f0001820:	0000003a 	andeq	r0, r0, sl, lsr r0
f0001824:	6d685f26 	stclvs	15, cr5, [r8, #-152]!	; 0xffffff68
f0001828:	67705f6d 	ldrbvs	r5, [r0, -sp, ror #30]!
f000182c:	6c626174 	stfvse	f6, [r2], #-464	; 0xfffffe30
f0001830:	5d335b65 	fldmdbxpl	r3!, {d5-d54}	;@ Deprecated
f0001834:	0000003a 	andeq	r0, r0, sl, lsr r0
f0001838:	5d6d6d5b 	stclpl	13, cr6, [sp, #-364]!	; 0xfffffe94
f000183c:	5f6d6d20 	svcpl	0x006d6d20
f0001840:	74696e69 	strbtvc	r6, [r9], #-3689	; 0xe69
f0001844:	6e65203a 	mcrvs	0, 3, r2, cr5, cr10, {1}
f0001848:	0a726574 	beq	f1c9ae20 <_hmm_pgtable+0x1c94e20>
f000184c:	0000000d 	andeq	r0, r0, sp
f0001850:	2d2d2d20 	stccs	13, cr2, [sp, #-128]!	; 0xffffff80
f0001854:	49414d20 	stmdbmi	r1, {r5, r8, sl, fp, lr}^
f0001858:	2d2d2052 	stccs	0, cr2, [sp, #-328]!	; 0xfffffeb8
f000185c:	0d0a2d2d 	stceq	13, cr2, [sl, #-180]	; 0xffffff4c
f0001860:	00000000 	andeq	r0, r0, r0
f0001864:	7269616d 	rsbvc	r6, r9, #1073741851	; 0x4000001b
f0001868:	00003a30 	andeq	r3, r0, r0, lsr sl
f000186c:	7269616d 	rsbvc	r6, r9, #1073741851	; 0x4000001b
f0001870:	00003a31 	andeq	r3, r0, r1, lsr sl
f0001874:	69616d68 	stmdbvs	r1!, {r3, r5, r6, r8, sl, fp, sp, lr}^
f0001878:	003a3072 	eorseq	r3, sl, r2, ror r0
f000187c:	69616d68 	stmdbvs	r1!, {r3, r5, r6, r8, sl, fp, sp, lr}^
f0001880:	003a3172 	eorseq	r3, sl, r2, ror r1
f0001884:	2d2d2d20 	stccs	13, cr2, [sp, #-128]!	; 0xffffff80
f0001888:	43544820 	cmpmi	r4, #2097152	; 0x200000
f000188c:	2d2d2052 	stccs	0, cr2, [sp, #-328]!	; 0xfffffeb8
f0001890:	0d0a2d2d 	stceq	13, cr2, [sl, #-180]	; 0xffffff4c
f0001894:	00000000 	andeq	r0, r0, r0
f0001898:	72637468 	rsbvc	r7, r3, #1744830464	; 0x68000000
f000189c:	0000003a 	andeq	r0, r0, sl, lsr r0
f00018a0:	74637368 	strbtvc	r7, [r3], #-872	; 0x368
f00018a4:	003a726c 	eorseq	r7, sl, ip, ror #4
f00018a8:	72637476 	rsbvc	r7, r3, #1979711488	; 0x76000000
f00018ac:	0000003a 	andeq	r0, r0, sl, lsr r0
f00018b0:	62747476 	rsbsvs	r7, r4, #1979711488	; 0x76000000
f00018b4:	61622e72 	smcvs	8930	; 0x22e2
f00018b8:	2e726464 	cdpcs	4, 7, cr6, cr2, cr4, {3}
f00018bc:	00003a78 	andeq	r3, r0, r8, ror sl
f00018c0:	3a726368 	bcc	f1c9a668 <_hmm_pgtable+0x1c94668>
f00018c4:	00000000 	andeq	r0, r0, r0
f00018c8:	74697277 	strbtvc	r7, [r9], #-631	; 0x277
f00018cc:	20676e69 	rsbcs	r6, r7, r9, ror #28
f00018d0:	62747468 	rsbsvs	r7, r4, #1744830464	; 0x68000000
f00018d4:	00003a72 	andeq	r3, r0, r2, ror sl
f00018d8:	64616572 	strbtvs	r6, [r1], #-1394	; 0x572
f00018dc:	63616220 	cmnvs	r1, #2
f00018e0:	7468206b 	strbtvc	r2, [r8], #-107	; 0x6b
f00018e4:	3a726274 	bcc	f1c9a2bc <_hmm_pgtable+0x1c942bc>
f00018e8:	00000000 	andeq	r0, r0, r0
f00018ec:	5d6d6d5b 	stclpl	13, cr6, [sp, #-364]!	; 0xfffffe94
f00018f0:	5f6d6d20 	svcpl	0x006d6d20
f00018f4:	74696e69 	strbtvc	r6, [r9], #-3689	; 0xe69
f00018f8:	7865203a 	stmdavc	r5!, {r1, r3, r4, r5, sp}^
f00018fc:	0d0a7469 	cfstrseq	mvf7, [sl, #-420]	; 0xfffffe5c
f0001900:	00000000 	andeq	r0, r0, r0
f0001904:	7264696d 	rsbvc	r6, r4, #1785856	; 0x1b4000
f0001908:	0000003a 	andeq	r0, r0, sl, lsr r0
f000190c:	72616263 	rsbvc	r6, r1, #805306374	; 0x30000006
f0001910:	0000003a 	andeq	r0, r0, sl, lsr r0
f0001914:	675f6162 	ldrbvs	r6, [pc, -r2, ror #2]
f0001918:	3a646369 	bcc	f191a6c4 <_hmm_pgtable+0x19146c4>
f000191c:	00000000 	andeq	r0, r0, r0
f0001920:	675f6162 	ldrbvs	r6, [pc, -r2, ror #2]
f0001924:	3a636369 	bcc	f18da6d0 <_hmm_pgtable+0x18d46d0>
f0001928:	00000000 	andeq	r0, r0, r0
f000192c:	675f6162 	ldrbvs	r6, [pc, -r2, ror #2]
f0001930:	3a686369 	bcc	f1a1a6dc <_hmm_pgtable+0x1a146dc>
f0001934:	00000000 	andeq	r0, r0, r0
f0001938:	675f6162 	ldrbvs	r6, [pc, -r2, ror #2]
f000193c:	3a766369 	bcc	f1d9a6e8 <_hmm_pgtable+0x1d946e8>
f0001940:	00000000 	andeq	r0, r0, r0
f0001944:	675f6162 	ldrbvs	r6, [pc, -r2, ror #2]
f0001948:	69766369 	ldmdbvs	r6!, {r0, r3, r5, r6, r8, r9, sp, lr}^
f000194c:	0000003a 	andeq	r0, r0, sl, lsr r0
f0001950:	44434947 	strbmi	r4, [r3], #-2375	; 0x947
f0001954:	4c54435f 	mrrcmi	3, 5, r4, r4, cr15	; <UNPREDICTABLE>
f0001958:	00003a52 	andeq	r3, r0, r2, asr sl
f000195c:	44434947 	strbmi	r4, [r3], #-2375	; 0x947
f0001960:	5059545f 	subspl	r5, r9, pc, asr r4
f0001964:	003a5245 	eorseq	r5, sl, r5, asr #4
f0001968:	44434947 	strbmi	r4, [r3], #-2375	; 0x947
f000196c:	4449495f 	strbmi	r4, [r9], #-2399	; 0x95f
f0001970:	00003a52 	andeq	r3, r0, r2, asr sl

Disassembly of section .data:

f0001974 <secure_context_stack_base>:
	...

f00019f0 <guest_context_stack_base>:
	...

f0001a6c <guest_context_stack_limit>:
	...

f0001ae8 <hyp_context_stack_limit>:
f0001ae8:	00000000 	andeq	r0, r0, r0

f0001aec <guest_context_sp>:
f0001aec:	00000000 	andeq	r0, r0, r0

f0001af0 <hyp_context_sp>:
f0001af0:	00000000 	andeq	r0, r0, r0

Disassembly of section .bss:

f0002000 <current_guest>:
f0002000:	00000000 	andeq	r0, r0, r0

f0002004 <guest_contexts>:
	...

f0003000 <_vmid_ttbl>:
	...

f0004000 <_vttbr_pte_guest0>:
	...

f0004ff8 <.LANCHOR1>:
	...

f0005000 <_vttbr_pte_guest1>:
	...

f0006000 <_hmm_pgtable>:
	...

Disassembly of section .ARM.attributes:

00000000 <.ARM.attributes>:
   0:	00003d41 	andeq	r3, r0, r1, asr #26
   4:	61656100 	cmnvs	r5, r0, lsl #2
   8:	01006962 	tsteq	r0, r2, ror #18
   c:	00000033 	andeq	r0, r0, r3, lsr r0
  10:	726f4305 	rsbvc	r4, pc, #335544320	; 0x14000000
  14:	2d786574 	cfldr64cs	mvdx6, [r8, #-464]!	; 0xfffffe30
  18:	00353141 	eorseq	r3, r5, r1, asr #2
  1c:	41070a06 	tstmi	r7, r6, lsl #20
  20:	02090108 	andeq	r0, r9, #2
  24:	0412040a 	ldreq	r0, [r2], #-1034	; 0x40a
  28:	01150114 	tsteq	r5, r4, lsl r1
  2c:	01180317 	tsteq	r8, r7, lsl r3
  30:	031b021a 	tsteq	fp, #-1610612735	; 0xa0000001
  34:	0122011c 	teqeq	r2, ip, lsl r1
  38:	022c012a 	eoreq	r0, ip, #-2147483638	; 0x8000000a
  3c:	Address 0x0000003c is out of bounds.


Disassembly of section .comment:

00000000 <.comment>:
   0:	3a434347 	bcc	10d0d24 <PHYS_OFFSET-0x7ef2f2dc>
   4:	72632820 	rsbvc	r2, r3, #2097152	; 0x200000
   8:	7473736f 	ldrbtvc	r7, [r3], #-879	; 0x36f
   c:	2d6c6f6f 	stclcs	15, cr6, [ip, #-444]!	; 0xfffffe44
  10:	6c20474e 	stcvs	7, cr4, [r0], #-312	; 0xfffffec8
  14:	72616e69 	rsbvc	r6, r1, #1680	; 0x690
  18:	2e312d6f 	cdpcs	13, 3, cr2, cr1, cr15, {3}
  1c:	312e3331 	teqcc	lr, r1, lsr r3
  20:	3130322d 	teqcc	r0, sp, lsr #4
  24:	35302e32 	ldrcc	r2, [r0, #-3634]!	; 0xe32
  28:	3130322d 	teqcc	r0, sp, lsr #4
  2c:	32353032 	eorscc	r3, r5, #50	; 0x32
  30:	202d2033 	eorcs	r2, sp, r3, lsr r0
  34:	616e694c 	cmnvs	lr, ip, asr #18
  38:	47206f72 			; <UNDEFINED> instruction: 0x47206f72
  3c:	32204343 	eorcc	r4, r0, #201326593	; 0xc000001
  40:	2e323130 	mrccs	1, 1, r3, cr2, cr0, {1}
  44:	20293530 	eorcs	r3, r9, r0, lsr r5
  48:	2e372e34 	mrccs	14, 1, r2, cr7, cr4, {1}
  4c:	30322031 	eorscc	r2, r2, r1, lsr r0
  50:	35303231 	ldrcc	r3, [r0, #-561]!	; 0x231
  54:	28203431 	stmdacs	r0!, {r0, r4, r5, sl, ip, sp}
  58:	72657270 	rsbvc	r7, r5, #7
  5c:	61656c65 	cmnvs	r5, r5, ror #24
  60:	00296573 	eoreq	r6, r9, r3, ror r5

Disassembly of section .debug_line:

00000000 <.debug_line>:
   0:	00000095 	muleq	r0, r5, r0
   4:	001d0002 	andseq	r0, sp, r2
   8:	01020000 	mrseq	r0, (UNDEF: 2)
   c:	000d0efb 	strdeq	r0, [sp], -fp
  10:	01010101 	tsteq	r1, r1, lsl #2
  14:	01000000 	mrseq	r0, (UNDEF: 0)
  18:	00010000 	andeq	r0, r1, r0
  1c:	746f6f62 	strbtvc	r6, [pc], #-3938	; 24 <PHYS_OFFSET-0x7fffffdc>
  20:	0000532e 	andeq	r5, r0, lr, lsr #6
  24:	00000000 	andeq	r0, r0, r0
  28:	00080205 	andeq	r0, r8, r5, lsl #4
  2c:	2903f000 	stmdbcs	r3, {ip, sp, lr, pc}
  30:	2f6b6901 	svccs	0x006b6901
  34:	2f2f3633 	svccs	0x002f3633
  38:	2f2f2f2f 	svccs	0x002f2f2f
  3c:	2e090330 	mcrcs	3, 0, r0, cr9, cr0, {1}
  40:	2f2f2f2f 	svccs	0x002f2f2f
  44:	352f342f 	strcc	r3, [pc, #-1071]!	; fffffc1d <STACKTOP+0xfffc1d>
  48:	2f2f2f2f 	svccs	0x002f2f2f
  4c:	2f2f2f2f 	svccs	0x002f2f2f
  50:	312f2f2f 	teqcc	pc, pc, lsr #30
  54:	2f312f2f 	svccs	0x00312f2f
  58:	2f312f2f 	svccs	0x00312f2f
  5c:	84332f2f 	ldrthi	r2, [r3], #-3887	; 0xf2f
  60:	302f2f2f 	eorcc	r2, pc, pc, lsr #30
  64:	2f303132 	svccs	0x00303132
  68:	0a032f2f 	beq	cbd2c <PHYS_OFFSET-0x7ff342d4>
  6c:	2f2f322e 	svccs	0x002f322e
  70:	31322f2f 	teqcc	r2, pc, lsr #30
  74:	2e0e0330 	mcrcs	3, 0, r0, cr14, cr0, {1}
  78:	7efe0330 	mrcvc	3, 7, r0, cr14, cr0, {1}
  7c:	32014602 	andcc	r4, r1, #2097152	; 0x200000
  80:	032e1003 	teqeq	lr, #3
  84:	0e032e0f 	cdpeq	14, 0, cr2, cr3, cr15, {0}
  88:	0f03342e 	svceq	0x0003342e
  8c:	1603332e 	strne	r3, [r3], -lr, lsr #6
  90:	2e0c032e 	cdpcs	3, 0, cr0, cr12, cr14, {1}
  94:	01000202 	tsteq	r0, r2, lsl #4
  98:	00009301 	andeq	r9, r0, r1, lsl #6
  9c:	20000200 	andcs	r0, r0, r0, lsl #4
  a0:	02000000 	andeq	r0, r0, #0
  a4:	0d0efb01 	vstreq	d15, [lr, #-4]
  a8:	01010100 	mrseq	r0, (UNDEF: 17)
  ac:	00000001 	andeq	r0, r0, r1
  b0:	01000001 	tsteq	r0, r1
  b4:	6e6f6d00 	cdpvs	13, 6, cr6, cr15, cr0, {0}
  b8:	726f7469 	rsbvc	r7, pc, #1761607680	; 0x69000000
  bc:	0000532e 	andeq	r5, r0, lr, lsr #6
  c0:	00000000 	andeq	r0, r0, r0
  c4:	01e80205 	mvneq	r0, r5, lsl #4
  c8:	1703f000 	strne	pc, [r3, -r0]
  cc:	6b2f4c01 	blvs	bd30d8 <PHYS_OFFSET-0x7f42cf28>
  d0:	2f2f2f2f 	svccs	0x002f2f2f
  d4:	302f2f2f 	eorcc	r2, pc, pc, lsr #30
  d8:	2f2f2f32 	svccs	0x002f2f32
  dc:	2e0a032f 	cdpcs	3, 0, cr0, cr10, cr15, {1}
  e0:	332f312f 	teqcc	pc, #-1073741813	; 0xc000000b
  e4:	2f2f2f2f 	svccs	0x002f2f2f
  e8:	2f2f2f32 	svccs	0x002f2f32
  ec:	2f322f30 	svccs	0x00322f30
  f0:	312f2f2f 	teqcc	pc, pc, lsr #30
  f4:	2f2f352f 	svccs	0x002f352f
  f8:	d5032f2f 	strle	r2, [r3, #-3887]	; 0xf2f
  fc:	2f2f2e00 	svccs	0x002f2e00
 100:	2f2f2f2f 	svccs	0x002f2f2f
 104:	2f2e1a03 	svccs	0x002e1a03
 108:	2f2f302f 	svccs	0x002f302f
 10c:	35322f30 	ldrcc	r2, [r2, #-3888]!	; 0xf30
 110:	1a032f30 	bne	cbdd8 <PHYS_OFFSET-0x7ff34228>
 114:	2f2f342e 	svccs	0x002f342e
 118:	312f302f 	teqcc	pc, pc, lsr #32
 11c:	7e800331 	mcrvc	3, 4, r0, cr0, cr1, {1}
 120:	ba03322e 	blt	cc9e0 <PHYS_OFFSET-0x7ff33620>
 124:	31322e01 	teqcc	r2, r1, lsl #28
 128:	022e3403 	eoreq	r3, lr, #50331648	; 0x3000000
 12c:	01010002 	tsteq	r1, r2
 130:	00000080 	andeq	r0, r0, r0, lsl #1
 134:	003d0002 	eorseq	r0, sp, r2
 138:	01020000 	mrseq	r0, (UNDEF: 2)
 13c:	000d0efb 	strdeq	r0, [sp], -fp
 140:	01010101 	tsteq	r1, r1, lsl #2
 144:	01000000 	mrseq	r0, (UNDEF: 0)
 148:	00010000 	andeq	r0, r1, r0
 14c:	74735f63 	ldrbtvc	r5, [r3], #-3939	; 0xf63
 150:	2e747261 	cdpcs	2, 7, cr7, cr4, cr1, {3}
 154:	00000063 	andeq	r0, r0, r3, rrx
 158:	72617500 	rsbvc	r7, r1, #0
 15c:	72705f74 	rsbsvc	r5, r0, #464	; 0x1d0
 160:	2e746e69 	cdpcs	14, 7, cr6, cr4, cr9, {3}
 164:	00000068 	andeq	r0, r0, r8, rrx
 168:	6e6f6d00 	cdpvs	13, 6, cr6, cr15, cr0, {0}
 16c:	726f7469 	rsbvc	r7, pc, #1761607680	; 0x69000000
 170:	0000682e 	andeq	r6, r0, lr, lsr #16
 174:	00000000 	andeq	r0, r0, r0
 178:	03400205 	movteq	r0, #517	; 0x205
 17c:	1803f000 	stmdane	r3, {ip, sp, lr, pc}
 180:	2f2d1301 	svccs	0x002d1301
 184:	2b33bd4b 	blcs	cef6b8 <PHYS_OFFSET-0x7f310948>
 188:	2f4c3235 	svccs	0x004c3235
 18c:	02040200 	andeq	r0, r4, #0
 190:	040200d9 	streq	r0, [r2], #-217	; 0xd9
 194:	02004c02 	andeq	r4, r0, #512	; 0x200
 198:	002f0204 	eoreq	r0, pc, r4, lsl #4
 19c:	4b020402 	blmi	811ac <PHYS_OFFSET-0x7ff7ee54>
 1a0:	02040200 	andeq	r0, r4, #0
 1a4:	0402002f 	streq	r0, [r2], #-47	; 0x2f
 1a8:	4a7a0302 	bmi	1e80db8 <PHYS_OFFSET-0x7e17f248>
 1ac:	022d2f52 	eoreq	r2, sp, #328	; 0x148
 1b0:	01010010 	tsteq	r1, r0, lsl r0
 1b4:	00000135 	andeq	r0, r0, r5, lsr r1
 1b8:	00780002 	rsbseq	r0, r8, r2
 1bc:	01020000 	mrseq	r0, (UNDEF: 2)
 1c0:	000d0efb 	strdeq	r0, [sp], -fp
 1c4:	01010101 	tsteq	r1, r1, lsl #2
 1c8:	01000000 	mrseq	r0, (UNDEF: 0)
 1cc:	2f010000 	svccs	0x00010000
 1d0:	656d6f68 	strbvs	r6, [sp, #-3944]!	; 0xf68
 1d4:	67616d2f 	strbvs	r6, [r1, -pc, lsr #26]!
 1d8:	61796369 	cmnvs	r9, r9, ror #6
 1dc:	442f6162 	strtmi	r6, [pc], #-354	; 1e4 <PHYS_OFFSET-0x7ffffe1c>
 1e0:	2f352d53 	svccs	0x00352d53
 1e4:	672f7773 			; <UNDEFINED> instruction: 0x672f7773
 1e8:	622f6363 	eorvs	r6, pc, #-1946157055	; 0x8c000001
 1ec:	2e2f6e69 	cdpcs	14, 2, cr6, cr15, cr9, {3}
 1f0:	696c2f2e 	stmdbvs	ip!, {r1, r2, r3, r5, r8, r9, sl, fp, sp}^
 1f4:	63672f62 	cmnvs	r7, #392	; 0x188
 1f8:	72612f63 	rsbvc	r2, r1, #396	; 0x18c
 1fc:	696c2d6d 	stmdbvs	ip!, {r0, r2, r3, r5, r6, r8, sl, fp, sp}^
 200:	2d78756e 	cfldr64cs	mvdx7, [r8, #-440]!	; 0xfffffe48
 204:	65756e67 	ldrbvs	r6, [r5, #-3687]!	; 0xe67
 208:	68696261 	stmdavs	r9!, {r0, r5, r6, r9, sp, lr}^
 20c:	2e342f66 	cdpcs	15, 3, cr2, cr4, cr6, {3}
 210:	2f312e37 	svccs	0x00312e37
 214:	6c636e69 	stclvs	14, cr6, [r3], #-420	; 0xfffffe5c
 218:	00656475 	rsbeq	r6, r5, r5, ror r4
 21c:	72747300 	rsbsvc	r7, r4, #0
 220:	2e676e69 	cdpcs	14, 6, cr6, cr7, cr9, {3}
 224:	00000063 	andeq	r0, r0, r3, rrx
 228:	64747300 	ldrbtvs	r7, [r4], #-768	; 0x300
 22c:	2e666564 	cdpcs	5, 6, cr6, cr6, cr4, {3}
 230:	00010068 	andeq	r0, r1, r8, rrx
 234:	05000000 	streq	r0, [r0, #-0]
 238:	0003f002 	andeq	pc, r3, r2
 23c:	011703f0 			; <UNDEFINED> instruction: 0x011703f0
 240:	67016f03 	strvs	r6, [r1, -r3, lsl #30]
 244:	4a130365 	bmi	4c0fe0 <PHYS_OFFSET-0x7fb3f020>
 248:	69031331 	stmdbvs	r3, {r0, r4, r5, r8, r9, ip}
 24c:	0365674a 	cmneq	r5, #19398656	; 0x1280000
 250:	6d034a1b 	vstrvs	s8, [r3, #-108]	; 0xffffff94
 254:	4c2c302e 	stcmi	0, cr3, [ip], #-184	; 0xffffff48
 258:	034a0b03 	movteq	r0, #43779	; 0xab03
 25c:	03494a76 	movteq	r4, #39542	; 0x9a76
 260:	9a158214 	bls	560ab8 <PHYS_OFFSET-0x7fa9f548>
 264:	02040200 	andeq	r0, r4, #0
 268:	0666066a 	strbteq	r0, [r6], -sl, ror #12
 26c:	2f36492f 	svccs	0x0036492f
 270:	62154e49 	andsvs	r4, r5, #1168	; 0x490
 274:	31bd4933 			; <UNDEFINED> instruction: 0x31bd4933
 278:	30306314 	eorscc	r6, r0, r4, lsl r3
 27c:	16314d2d 	ldrtne	r4, [r1], -sp, lsr #26
 280:	842f322a 	strthi	r3, [pc], #-554	; 288 <PHYS_OFFSET-0x7ffffd78>
 284:	6c2e7803 	stcvs	8, cr7, [lr], #-12
 288:	0a032b84 	beq	cb0a0 <PHYS_OFFSET-0x7ff34f60>
 28c:	77032f66 	strvc	r2, [r3, -r6, ror #30]
 290:	0a034c4a 	beq	d33c0 <PHYS_OFFSET-0x7ff2cc40>
 294:	4cbb134a 	ldcmi	3, cr1, [fp], #296	; 0x128
 298:	04020029 	streq	r0, [r2], #-41	; 0x29
 29c:	4c674c02 	stclmi	12, cr4, [r7], #-8
 2a0:	7903352b 	stmdbvc	r3, {r0, r1, r3, r5, r8, sl, ip, sp}
 2a4:	4a0a032e 	bmi	280f64 <PHYS_OFFSET-0x7fd7f09c>
 2a8:	032d6b2f 	teqeq	sp, #48128	; 0xbc00
 2ac:	11034a73 	tstne	r3, r3, ror sl
 2b0:	21082f4a 	tstcs	r8, sl, asr #30
 2b4:	0200294c 	andeq	r2, r0, #1245184	; 0x130000
 2b8:	004c0204 	subeq	r0, ip, r4, lsl #4
 2bc:	06010402 	streq	r0, [r1], -r2, lsl #8
 2c0:	4c670666 	stclmi	6, cr0, [r7], #-408	; 0xfffffe68
 2c4:	7903352b 	stmdbvc	r3, {r0, r1, r3, r5, r8, sl, ip, sp}
 2c8:	660a032e 	strvs	r0, [sl], -lr, lsr #6
 2cc:	01040200 	mrseq	r0, R12_usr
 2d0:	67064a06 	strvs	r4, [r6, -r6, lsl #20]
 2d4:	7403314c 	strvc	r3, [r3], #-332	; 0x14c
 2d8:	0903504a 	stmdbeq	r3, {r1, r3, r6, ip, lr}
 2dc:	009a1566 	addseq	r1, sl, r6, ror #10
 2e0:	4e020402 	cdpmi	4, 0, cr0, cr2, cr2, {0}
 2e4:	2f6c2d4b 	svccs	0x006c2d4b
 2e8:	01000402 	tsteq	r0, r2, lsl #8
 2ec:	00012901 	andeq	r2, r1, r1, lsl #18
 2f0:	60000200 	andvs	r0, r0, r0, lsl #4
 2f4:	02000000 	andeq	r0, r0, #0
 2f8:	0d0efb01 	vstreq	d15, [lr, #-4]
 2fc:	01010100 	mrseq	r0, (UNDEF: 17)
 300:	00000001 	andeq	r0, r0, r1
 304:	01000001 	tsteq	r0, r1
 308:	616d6800 	cmnvs	sp, r0, lsl #16
 30c:	632e6e69 	teqvs	lr, #1680	; 0x690
 310:	00000000 	andeq	r0, r0, r0
 314:	68637261 	stmdavs	r3!, {r0, r5, r6, r9, ip, sp, lr}^
 318:	7079745f 	rsbsvc	r7, r9, pc, asr r4
 31c:	682e7365 	stmdavs	lr!, {r0, r2, r5, r6, r8, r9, ip, sp, lr}
 320:	00000000 	andeq	r0, r0, r0
 324:	6d6d7668 	stclvs	6, cr7, [sp, #-416]!	; 0xfffffe60
 328:	7079745f 	rsbsvc	r7, r9, pc, asr r4
 32c:	682e7365 	stmdavs	lr!, {r0, r2, r5, r6, r8, r9, ip, sp, lr}
 330:	00000000 	andeq	r0, r0, r0
 334:	6561706c 	strbvs	r7, [r1, #-108]!	; 0x6c
 338:	0000682e 	andeq	r6, r0, lr, lsr #16
 33c:	6d6d0000 	stclvs	0, cr0, [sp, #-0]
 340:	0000682e 	andeq	r6, r0, lr, lsr #16
 344:	61750000 	cmnvs	r5, r0
 348:	705f7472 	subsvc	r7, pc, r2, ror r4	; <UNPREDICTABLE>
 34c:	746e6972 	strbtvc	r6, [lr], #-2418	; 0x972
 350:	0000682e 	andeq	r6, r0, lr, lsr #16
 354:	00000000 	andeq	r0, r0, r0
 358:	06f00205 	ldrbteq	r0, [r0], r5, lsl #4
 35c:	8b03f000 	blhi	fc364 <PHYS_OFFSET-0x7ff03c9c>
 360:	032e0101 	teqeq	lr, #1073741824	; 0x40000000
 364:	4c4b2e0a 	mcrrmi	14, 0, r2, fp, cr10
 368:	842c2a50 	strthi	r2, [ip], #-2640	; 0xa50
 36c:	004b4b2f 	subeq	r4, fp, pc, lsr #22
 370:	4c020402 	cfstrsmi	mvf0, [r2], {2}
 374:	02040200 	andeq	r0, r4, #0
 378:	0402002d 	streq	r0, [r2], #-45	; 0x2d
 37c:	02002f02 	andeq	r2, r0, #8
 380:	002d0204 	eoreq	r0, sp, r4, lsl #4
 384:	2f020402 	svccs	0x00020402
 388:	02040200 	andeq	r0, r4, #0
 38c:	0903352d 	stmdbeq	r3, {r0, r2, r3, r5, r8, sl, ip, sp}
 390:	4d674dba 	stclmi	13, cr4, [r7, #-744]!	; 0xfffffd18
 394:	75032d2f 	strvc	r2, [r3, #-3375]	; 0xd2f
 398:	7efd032e 	cdpvc	3, 15, cr0, cr13, cr14, {1}
 39c:	2f2d2f9e 	svccs	0x002d2f9e
 3a0:	d7d72108 	ldrble	r2, [r7, r8, lsl #2]
 3a4:	36322dbb 			; <UNDEFINED> instruction: 0x36322dbb
 3a8:	2e513001 	cdpcs	0, 5, cr3, cr1, cr1, {0}
 3ac:	2f2c312f 	svccs	0x002c312f
 3b0:	0388302f 	orreq	r3, r8, #47	; 0x2f
 3b4:	bbbbba0d 	bllt	feeeebf0 <_hmm_pgtable+0xeee8bf0>
 3b8:	667303bb 			; <UNDEFINED> instruction: 0x667303bb
 3bc:	4a13034b 	bmi	4c10f0 <PHYS_OFFSET-0x7fb3ef10>
 3c0:	6f032f4b 	svcvs	0x00032f4b
 3c4:	4b4b4b2e 	blmi	12d3084 <PHYS_OFFSET-0x7ed2cf7c>
 3c8:	4b2e7003 	blmi	b9c3dc <PHYS_OFFSET-0x7f463c24>
 3cc:	081f034b 	ldmdaeq	pc, {r0, r1, r3, r6, r8, r9}	; <UNPREDICTABLE>
 3d0:	03343258 	teqeq	r4, #-2147483643	; 0x80000005
 3d4:	0d03667a 	stceq	6, cr6, [r3, #-488]	; 0xfffffe18
 3d8:	2e79034a 	cdpcs	3, 7, cr0, cr9, cr10, {2}
 3dc:	312f2f2f 	teqcc	pc, pc, lsr #30
 3e0:	2e0b032f 	cdpcs	3, 0, cr0, cr11, cr15, {1}
 3e4:	032e7503 	teqeq	lr, #12582912	; 0xc00000
 3e8:	79032e0c 	stmdbvc	r3, {r2, r3, r9, sl, fp, sp}
 3ec:	2f29342e 	svccs	0x0029342e
 3f0:	2c30322f 	lfmcs	f3, 4, [r0], #-188	; 0xffffff44
 3f4:	032d4b30 	teqeq	sp, #49152	; 0xc000
 3f8:	2a162e32 	bcs	58bcc8 <PHYS_OFFSET-0x7fa74338>
 3fc:	312b3132 	teqcc	fp, r2, lsr r1
 400:	2d2f316b 	stfcss	f3, [pc, #-428]!	; 25c <PHYS_OFFSET-0x7ffffda4>
 404:	2f2d1332 	svccs	0x002d1332
 408:	30322d4c 	eorscc	r2, r2, ip, asr #26
 40c:	4f2f314d 	svcmi	0x002f314d
 410:	76033131 			; <UNDEFINED> instruction: 0x76033131
 414:	000c0266 	andeq	r0, ip, r6, ror #4
 418:	00610101 	rsbeq	r0, r1, r1, lsl #2
 41c:	00020000 	andeq	r0, r2, r0
 420:	00000049 	andeq	r0, r0, r9, asr #32
 424:	0efb0102 	cdpeq	1, 15, cr0, cr11, cr2, {0}
 428:	0101000d 	tsteq	r1, sp
 42c:	00000101 	andeq	r0, r0, r1, lsl #2
 430:	00000100 	andeq	r0, r0, r0, lsl #2
 434:	6f6d0001 	svcvs	0x006d0001
 438:	6f74696e 	svcvs	0x0074696e
 43c:	6d695f72 	stclvs	15, cr5, [r9, #-456]!	; 0xfffffe38
 440:	00632e70 	rsbeq	r2, r3, r0, ror lr
 444:	75000000 	strvc	r0, [r0, #-0]
 448:	5f747261 	svcpl	0x00747261
 44c:	6e697270 	mcrvs	2, 3, r7, cr9, cr0, {3}
 450:	00682e74 	rsbeq	r2, r8, r4, ror lr
 454:	6d000000 	stcvs	0, cr0, [r0, #-0]
 458:	74696e6f 	strbtvc	r6, [r9], #-3695	; 0xe6f
 45c:	705f726f 	subsvc	r7, pc, pc, ror #4
 460:	61766972 	cmnvs	r6, r2, ror r9
 464:	682e6574 	stmdavs	lr!, {r2, r4, r5, r6, r8, sl, sp, lr}
 468:	00000000 	andeq	r0, r0, r0
 46c:	02050000 	andeq	r0, r5, #0
 470:	f0000a5c 			; <UNDEFINED> instruction: 0xf0000a5c
 474:	2f2d1316 	svccs	0x002d1316
 478:	02022d4c 	andeq	r2, r2, #4864	; 0x1300
 47c:	70010100 	andvc	r0, r1, r0, lsl #2
 480:	02000000 	andeq	r0, r0, #0
 484:	00003300 	andeq	r3, r0, r0, lsl #6
 488:	fb010200 	blx	40c92 <PHYS_OFFSET-0x7ffbf36e>
 48c:	01000d0e 	tsteq	r0, lr, lsl #26
 490:	00010101 	andeq	r0, r1, r1, lsl #2
 494:	00010000 	andeq	r0, r1, r0
 498:	75000100 	strvc	r0, [r0, #-256]	; 0x100
 49c:	5f747261 	svcpl	0x00747261
 4a0:	6e697270 	mcrvs	2, 3, r7, cr9, cr0, {3}
 4a4:	00632e74 	rsbeq	r2, r3, r4, ror lr
 4a8:	61000000 	mrsvs	r0, (UNDEF: 0)
 4ac:	5f686372 	svcpl	0x00686372
 4b0:	65707974 	ldrbvs	r7, [r0, #-2420]!	; 0x974
 4b4:	00682e73 	rsbeq	r2, r8, r3, ror lr
 4b8:	00000000 	andeq	r0, r0, r0
 4bc:	74020500 	strvc	r0, [r2], #-1280	; 0x500
 4c0:	03f0000a 	mvnseq	r0, #10
 4c4:	6714010b 	ldrvs	r0, [r4, -fp, lsl #2]
 4c8:	86148865 	ldrhi	r8, [r4], -r5, ror #16
 4cc:	2d2e7503 	cfstr32cs	mvfx7, [lr, #-12]!
 4d0:	036e492f 	cmneq	lr, #770048	; 0xbc000
 4d4:	03362e78 	teqeq	r6, #1920	; 0x780
 4d8:	2f672e0b 	svccs	0x00672e0b
 4dc:	03352930 	teqeq	r5, #786432	; 0xc0000
 4e0:	0a032e6f 	beq	cbea4 <PHYS_OFFSET-0x7ff3415c>
 4e4:	2e09032e 	cdpcs	3, 0, cr0, cr9, cr14, {1}
 4e8:	4b2f2e4d 	blmi	bcbe24 <PHYS_OFFSET-0x7f4341dc>
 4ec:	02022d2f 	andeq	r2, r2, #3008	; 0xbc0
 4f0:	85010100 	strhi	r0, [r1, #-256]	; 0x100
 4f4:	02000001 	andeq	r0, r0, #1
 4f8:	00005d00 	andeq	r5, r0, r0, lsl #26
 4fc:	fb010200 	blx	40d06 <PHYS_OFFSET-0x7ffbf2fa>
 500:	01000d0e 	tsteq	r0, lr, lsl #26
 504:	00010101 	andeq	r0, r1, r1, lsl #2
 508:	00010000 	andeq	r0, r1, r0
 50c:	6d000100 	stfvss	f0, [r0, #-0]
 510:	00632e6d 	rsbeq	r2, r3, sp, ror #28
 514:	68000000 	stmdavs	r0, {}	; <UNPREDICTABLE>
 518:	5f6d6d76 	svcpl	0x006d6d76
 51c:	65707974 	ldrbvs	r7, [r0, #-2420]!	; 0x974
 520:	00682e73 	rsbeq	r2, r8, r3, ror lr
 524:	61000000 	mrsvs	r0, (UNDEF: 0)
 528:	5f686372 	svcpl	0x00686372
 52c:	65707974 	ldrbvs	r7, [r0, #-2420]!	; 0x974
 530:	00682e73 	rsbeq	r2, r8, r3, ror lr
 534:	6c000000 	stcvs	0, cr0, [r0], {-0}
 538:	2e656170 	mcrcs	1, 3, r6, cr5, cr0, {3}
 53c:	00000068 	andeq	r0, r0, r8, rrx
 540:	2e6d6d00 	cdpcs	13, 6, cr6, cr13, cr0, {0}
 544:	00000068 	andeq	r0, r0, r8, rrx
 548:	72617500 	rsbvc	r7, r1, #0
 54c:	72705f74 	rsbsvc	r5, r0, #464	; 0x1d0
 550:	2e746e69 	cdpcs	14, 7, cr6, cr4, cr9, {3}
 554:	00000068 	andeq	r0, r0, r8, rrx
 558:	05000000 	streq	r0, [r0, #-0]
 55c:	000b2402 	andeq	r2, fp, r2, lsl #8
 560:	018003f0 	strdeq	r0, [r0, r0]
 564:	482f1401 	stmdami	pc!, {r0, sl, ip}	; <UNPREDICTABLE>
 568:	2f164e33 	svccs	0x00164e33
 56c:	4e30302f 	cdpmi	0, 3, cr3, cr0, cr15, {1}
 570:	c9083566 	stmdbgt	r8, {r1, r2, r5, r6, r8, sl, ip, sp}
 574:	2dbd4c81 	ldccs	12, cr4, [sp, #516]!	; 0x204
 578:	2d2f302c 	stccs	0, cr3, [pc, #-176]!	; 4d0 <PHYS_OFFSET-0x7ffffb30>
 57c:	08a02f4b 	stmiaeq	r0!, {r0, r1, r3, r6, r8, r9, sl, fp, sp}
 580:	2a166b76 	bcs	59b360 <PHYS_OFFSET-0x7fa64ca0>
 584:	2c309b36 	ldccs	11, cr9, [r0], #-216	; 0xffffff28
 588:	67304830 			; <UNDEFINED> instruction: 0x67304830
 58c:	2b2b3467 	blcs	acd730 <PHYS_OFFSET-0x7f5328d0>
 590:	322e0b03 	eorcc	r0, lr, #3072	; 0xc00
 594:	352e7103 	strcc	r7, [lr, #-259]!	; 0x103
 598:	2e770334 	mrccs	3, 3, r0, cr7, cr4, {1}
 59c:	33312b32 	teqcc	r1, #51200	; 0xc800
 5a0:	2e760330 	mrccs	3, 3, r0, cr6, cr0, {1}
 5a4:	31303331 	teqcc	r0, r1, lsr r3
 5a8:	2e2b154e 	cfsh64cs	mvdx1, mvdx11, #46
 5ac:	2b312b31 	blcs	c4b278 <PHYS_OFFSET-0x7f3b4d88>
 5b0:	6d2f2d4e 	stcvs	13, cr2, [pc, #-312]!	; 480 <PHYS_OFFSET-0x7ffffb80>
 5b4:	bb2e7903 	bllt	b9e9c8 <PHYS_OFFSET-0x7f461638>
 5b8:	2e7a03c0 	cdpcs	3, 7, cr0, cr10, cr0, {6}
 5bc:	11033231 	tstne	r3, r1, lsr r2
 5c0:	2e6c0382 	cdpcs	3, 6, cr0, cr12, cr2, {4}
 5c4:	31676768 	cmncc	r7, r8, ror #14
 5c8:	2e790332 	mrccs	3, 3, r0, cr9, cr2, {1}
 5cc:	2e090331 	mcrcs	3, 0, r0, cr9, cr1, {1}
 5d0:	2a2e7803 	bcs	b9e5e4 <PHYS_OFFSET-0x7f461a1c>
 5d4:	78033436 	stmdavc	r3, {r1, r2, r4, r5, sl, ip, sp}
 5d8:	03334d2e 	teqeq	r3, #2944	; 0xb80
 5dc:	33312e78 	teqcc	r1, #1920	; 0x780
 5e0:	09033630 	stmdbeq	r3, {r4, r5, r9, sl, ip, sp}
 5e4:	032d9f01 	teqeq	sp, #4
 5e8:	0903662d 	stmdbeq	r3, {r0, r2, r3, r5, r9, sl, sp, lr}
 5ec:	2e77032e 	cdpcs	3, 7, cr0, cr7, cr14, {1}
 5f0:	bd2e0903 	stclt	9, cr0, [lr, #-12]!
 5f4:	302c692b 	eorcc	r6, ip, fp, lsr #18
 5f8:	77034d31 	smladxvc	r3, r1, sp, r4
 5fc:	bb9f2f4a 	bllt	fe7cc32c <_hmm_pgtable+0xe7c632c>
 600:	9f2f2dbb 	svcls	0x002f2dbb
 604:	2f2dbbbb 	svccs	0x002dbbbb
 608:	2dd7bb9f 	vldrcs	d27, [r7, #636]	; 0x27c
 60c:	00bb9f2f 	adcseq	r9, fp, pc, lsr #30
 610:	2f020402 	svccs	0x00020402
 614:	02040200 	andeq	r0, r4, #0
 618:	0402002d 	streq	r0, [r2], #-45	; 0x2d
 61c:	02004b02 	andeq	r4, r0, #2048	; 0x800
 620:	31650204 	cmncc	r5, r4, lsl #4
 624:	0b035b08 	bleq	d724c <PHYS_OFFSET-0x7ff28db4>
 628:	7fad032e 	svcvc	0x00ad032e
 62c:	d5034b4a 	strle	r4, [r3, #-2890]	; 0xb4a
 630:	4b316600 	blmi	c59e38 <PHYS_OFFSET-0x7f3a61c8>
 634:	d8d7d7d7 	ldmle	r7, {r0, r1, r2, r4, r6, r7, r8, r9, sl, ip, lr, pc}^
 638:	302f6767 	eorcc	r6, pc, r7, ror #14
 63c:	d9d7d7d7 	ldmible	r7, {r0, r1, r2, r4, r6, r7, r8, r9, sl, ip, lr, pc}^
 640:	db67d74b 	blle	19f6374 <PHYS_OFFSET-0x7e609c8c>
 644:	88d967d8 	ldmhi	r9, {r3, r4, r6, r7, r8, r9, sl, sp, lr}^
 648:	512e7a03 	teqpl	lr, r3, lsl #20
 64c:	362e7903 	strtcc	r7, [lr], -r3, lsl #18
 650:	302dda2f 	eorcc	sp, sp, pc, lsr #20
 654:	08a14b2d 	stmiaeq	r1!, {r0, r2, r3, r5, r8, r9, fp, lr}
 658:	d618035b 			; <UNDEFINED> instruction: 0xd618035b
 65c:	2d2f2d67 	stccs	13, cr2, [pc, #-412]!	; 4c8 <PHYS_OFFSET-0x7ffffb38>
 660:	302b309f 	mlacc	fp, pc, r0, r3	; <UNPREDICTABLE>
 664:	2d4b302d 	stclcs	0, cr3, [fp, #-180]	; 0xffffff4c
 668:	2f2c312d 	svccs	0x002c312d
 66c:	4208d7bb 	andmi	sp, r8, #49020928	; 0x2ec0000
 670:	30322bdb 	ldrsbtcc	r2, [r2], -fp
 674:	024cd92f 	subeq	sp, ip, #770048	; 0xbc000
 678:	0101002c 	tsteq	r1, ip, lsr #32
 67c:	00000044 	andeq	r0, r0, r4, asr #32
 680:	002e0002 	eoreq	r0, lr, r2
 684:	01020000 	mrseq	r0, (UNDEF: 2)
 688:	000d0efb 	strdeq	r0, [sp], -fp
 68c:	01010101 	tsteq	r1, r1, lsl #2
 690:	01000000 	mrseq	r0, (UNDEF: 0)
 694:	00010000 	andeq	r0, r1, r0
 698:	656d6974 	strbvs	r6, [sp, #-2420]!	; 0x974
 69c:	00632e72 	rsbeq	r2, r3, r2, ror lr
 6a0:	68000000 	stmdavs	r0, {}	; <UNPREDICTABLE>
 6a4:	5f6d6d76 	svcpl	0x006d6d76
 6a8:	65707974 	ldrbvs	r7, [r0, #-2420]!	; 0x974
 6ac:	00682e73 	rsbeq	r2, r8, r3, ror lr
 6b0:	00000000 	andeq	r0, r0, r0
 6b4:	7c020500 	cfstr32vc	mvfx0, [r2], {-0}
 6b8:	03f00013 	mvnseq	r0, #19
 6bc:	02160109 	andseq	r0, r6, #1073741826	; 0x40000002
 6c0:	01010004 	tsteq	r1, r4
 6c4:	00000068 	andeq	r0, r0, r8, rrx
 6c8:	003c0002 	eorseq	r0, ip, r2
 6cc:	01020000 	mrseq	r0, (UNDEF: 2)
 6d0:	000d0efb 	strdeq	r0, [sp], -fp
 6d4:	01010101 	tsteq	r1, r1, lsl #2
 6d8:	01000000 	mrseq	r0, (UNDEF: 0)
 6dc:	00010000 	andeq	r0, r1, r0
 6e0:	2e636967 	cdpcs	9, 6, cr6, cr3, cr7, {3}
 6e4:	00000063 	andeq	r0, r0, r3, rrx
 6e8:	6d766800 	ldclvs	8, cr6, [r6, #-0]
 6ec:	79745f6d 	ldmdbvc	r4!, {r0, r2, r3, r5, r6, r8, r9, sl, fp, ip, lr}^
 6f0:	2e736570 	mrccs	5, 3, r6, cr3, cr0, {3}
 6f4:	00000068 	andeq	r0, r0, r8, rrx
 6f8:	63726100 	cmnvs	r2, #0
 6fc:	79745f68 	ldmdbvc	r4!, {r3, r5, r6, r8, r9, sl, fp, ip, lr}^
 700:	2e736570 	mrccs	5, 3, r6, cr3, cr0, {3}
 704:	00000068 	andeq	r0, r0, r8, rrx
 708:	05000000 	streq	r0, [r0, #-0]
 70c:	00138402 	andseq	r8, r3, r2, lsl #8
 710:	011303f0 			; <UNDEFINED> instruction: 0x011303f0
 714:	2f2e1a03 	svccs	0x002e1a03
 718:	2f2fa0bc 	svccs	0x002fa0bc
 71c:	bbbba42d 	bllt	feee97d8 <_hmm_pgtable+0xeee37d8>
 720:	d7bbbbbb 			; <UNDEFINED> instruction: 0xd7bbbbbb
 724:	082cbcd7 	stmdaeq	ip!, {r0, r1, r2, r4, r6, r7, sl, fp, ip, sp, pc}
 728:	02302f79 	eorseq	r2, r0, #484	; 0x1e4
 72c:	01010004 	tsteq	r1, r4
 730:	00000050 	andeq	r0, r0, r0, asr r0
 734:	003b0002 	eorseq	r0, fp, r2
 738:	01020000 	mrseq	r0, (UNDEF: 2)
 73c:	000d0efb 	strdeq	r0, [sp], -fp
 740:	01010101 	tsteq	r1, r1, lsl #2
 744:	01000000 	mrseq	r0, (UNDEF: 0)
 748:	00010000 	andeq	r0, r1, r0
 74c:	65746e69 	ldrbvs	r6, [r4, #-3689]!	; 0xe69
 750:	70757272 	rsbsvc	r7, r5, r2, ror r2
 754:	00632e74 	rsbeq	r2, r3, r4, ror lr
 758:	68000000 	stmdavs	r0, {}	; <UNPREDICTABLE>
 75c:	5f6d6d76 	svcpl	0x006d6d76
 760:	65707974 	ldrbvs	r7, [r0, #-2420]!	; 0x974
 764:	00682e73 	rsbeq	r2, r8, r3, ror lr
 768:	67000000 	strvs	r0, [r0, -r0]
 76c:	682e6369 	stmdavs	lr!, {r0, r3, r5, r6, r8, r9, sp, lr}
 770:	00000000 	andeq	r0, r0, r0
 774:	02050000 	andeq	r0, r5, #0
 778:	f00014e4 			; <UNDEFINED> instruction: 0xf00014e4
 77c:	02101716 	andseq	r1, r0, #5767168	; 0x580000
 780:	01010002 	tsteq	r1, r2

Disassembly of section .debug_info:

00000000 <.debug_info>:
       0:	00000051 	andeq	r0, r0, r1, asr r0
       4:	00000002 	andeq	r0, r0, r2
       8:	01040000 	mrseq	r0, (UNDEF: 4)
       c:	00000000 	andeq	r0, r0, r0
      10:	f0000000 			; <UNDEFINED> instruction: 0xf0000000
      14:	f00001e0 			; <UNDEFINED> instruction: 0xf00001e0
      18:	746f6f62 	strbtvc	r6, [pc], #-3938	; 20 <PHYS_OFFSET-0x7fffffe0>
      1c:	2f00532e 	svccs	0x0000532e
      20:	656d6f68 	strbvs	r6, [sp, #-3944]!	; 0xf68
      24:	67616d2f 	strbvs	r6, [r1, -pc, lsr #26]!
      28:	61796369 	cmnvs	r9, r9, ror #6
      2c:	772f6162 	strvc	r6, [pc, -r2, ror #2]!
      30:	2f6b726f 	svccs	0x006b726f
      34:	65707968 	ldrbvs	r7, [r0, #-2408]!	; 0x968
      38:	73697672 	cmnvc	r9, #119537664	; 0x7200000
      3c:	6d2f726f 	sfmvs	f7, 4, [pc, #-444]!	; fffffe88 <STACKTOP+0xfffe88>
      40:	74696e6f 	strbtvc	r6, [r9], #-3695	; 0xe6f
      44:	4700726f 	strmi	r7, [r0, -pc, ror #4]
      48:	4120554e 	teqmi	r0, lr, asr #10
      4c:	2e322053 	mrccs	0, 1, r2, cr2, cr3, {2}
      50:	01003232 	tsteq	r0, r2, lsr r2
      54:	00005480 	andeq	r5, r0, r0, lsl #9
      58:	14000200 	strne	r0, [r0], #-512	; 0x200
      5c:	04000000 	streq	r0, [r0], #-0
      60:	00009901 	andeq	r9, r0, r1, lsl #18
      64:	0001e000 	andeq	lr, r1, r0
      68:	00032cf0 	strdeq	r2, [r3], -r0
      6c:	6e6f6df0 	mcrvs	13, 3, r6, cr15, cr0, {7}
      70:	726f7469 	rsbvc	r7, pc, #1761607680	; 0x69000000
      74:	2f00532e 	svccs	0x0000532e
      78:	656d6f68 	strbvs	r6, [sp, #-3944]!	; 0xf68
      7c:	67616d2f 	strbvs	r6, [r1, -pc, lsr #26]!
      80:	61796369 	cmnvs	r9, r9, ror #6
      84:	772f6162 	strvc	r6, [pc, -r2, ror #2]!
      88:	2f6b726f 	svccs	0x006b726f
      8c:	65707968 	ldrbvs	r7, [r0, #-2408]!	; 0x968
      90:	73697672 	cmnvc	r9, #119537664	; 0x7200000
      94:	6d2f726f 	sfmvs	f7, 4, [pc, #-444]!	; fffffee0 <STACKTOP+0xfffee0>
      98:	74696e6f 	strbtvc	r6, [r9], #-3695	; 0xe6f
      9c:	4700726f 	strmi	r7, [r0, -pc, ror #4]
      a0:	4120554e 	teqmi	r0, lr, asr #10
      a4:	2e322053 	mrccs	0, 1, r2, cr2, cr3, {2}
      a8:	01003232 	tsteq	r0, r2, lsr r2
      ac:	00020a80 	andeq	r0, r2, r0, lsl #21
      b0:	28000200 	stmdacs	r0, {r9}
      b4:	04000000 	streq	r0, [r0], #-0
      b8:	00000a01 	andeq	r0, r0, r1, lsl #20
      bc:	00000100 	andeq	r0, r0, r0, lsl #2
      c0:	009f0000 	addseq	r0, pc, r0
      c4:	03400000 	movteq	r0, #0
      c8:	03f0f000 	mvnseq	pc, #0
      cc:	0130f000 	teqeq	r0, r0
      d0:	01020000 	mrseq	r0, (UNDEF: 2)
      d4:	00005f06 	andeq	r5, r0, r6, lsl #30
      d8:	05020200 	streq	r0, [r2, #-512]	; 0x200
      dc:	000000d5 	ldrdeq	r0, [r0], -r5
      e0:	69050403 	stmdbvs	r5, {r0, r1, sl}
      e4:	0200746e 	andeq	r7, r0, #1845493760	; 0x6e000000
      e8:	00c70508 	sbceq	r0, r7, r8, lsl #10
      ec:	01020000 	mrseq	r0, (UNDEF: 2)
      f0:	00005d08 	andeq	r5, r0, r8, lsl #26
      f4:	07020200 	streq	r0, [r2, -r0, lsl #4]
      f8:	00000087 	andeq	r0, r0, r7, lsl #1
      fc:	50070402 	andpl	r0, r7, r2, lsl #8
     100:	02000000 	andeq	r0, r0, #0
     104:	00460708 	subeq	r0, r6, r8, lsl #14
     108:	01040000 	mrseq	r0, (UNDEF: 4)
     10c:	0000006b 	andeq	r0, r0, fp, rrx
     110:	40011801 	andmi	r1, r1, r1, lsl #16
     114:	74f00003 	ldrbtvc	r0, [r0], #3
     118:	00f00003 	rscseq	r0, r0, r3
     11c:	01000000 	mrseq	r0, (UNDEF: 0)
     120:	000000c2 	andeq	r0, r0, r2, asr #1
     124:	00035005 	andeq	r5, r3, r5
     128:	0001c4f0 	strdeq	ip, [r1], -r0
     12c:	00008e00 	andeq	r8, r0, r0, lsl #28
     130:	50010600 	andpl	r0, r1, r0, lsl #12
     134:	14e80305 	strbtne	r0, [r8], #773	; 0x305
     138:	0700f000 	streq	pc, [r0, -r0]
     13c:	f000035c 			; <UNDEFINED> instruction: 0xf000035c
     140:	000001e5 	andeq	r0, r0, r5, ror #3
     144:	00036805 	andeq	r6, r3, r5, lsl #16
     148:	0001c4f0 	strdeq	ip, [r1], -r0
     14c:	0000ae00 	andeq	sl, r0, r0, lsl #28
     150:	50010600 	andpl	r0, r1, r0, lsl #12
     154:	14fc0305 	ldrbtne	r0, [ip], #773	; 0x305
     158:	0700f000 	streq	pc, [r0, -r0]
     15c:	f000036c 			; <UNDEFINED> instruction: 0xf000036c
     160:	000001f9 	strdeq	r0, [r0], -r9
     164:	00037408 	andeq	r7, r3, r8, lsl #8
     168:	020301f0 	andeq	r0, r3, #60	; 0x3c
     16c:	04000000 	streq	r0, [r0], #-0
     170:	00002c01 	andeq	r2, r0, r1, lsl #24
     174:	01260100 	teqeq	r6, r0, lsl #2
     178:	f0000374 			; <UNDEFINED> instruction: 0xf0000374
     17c:	f00003f0 			; <UNDEFINED> instruction: 0xf00003f0
     180:	00000020 	andeq	r0, r0, r0, lsr #32
     184:	0001c401 	andeq	ip, r1, r1, lsl #8
     188:	00690900 	rsbeq	r0, r9, r0, lsl #18
     18c:	00332801 	eorseq	r2, r3, r1, lsl #16
     190:	00400000 	subeq	r0, r0, r0
     194:	df0a0000 	svcle	0x000a0000
     198:	01000000 	mrseq	r0, (UNDEF: 0)
     19c:	00004f29 	andeq	r4, r0, r9, lsr #30
     1a0:	0b550100 	bleq	15405a8 <PHYS_OFFSET-0x7eabfa58>
     1a4:	f0000380 			; <UNDEFINED> instruction: 0xf0000380
     1a8:	f0000384 			; <UNDEFINED> instruction: 0xf0000384
     1ac:	00000111 	andeq	r0, r0, r1, lsl r1
     1b0:	00009a0a 	andeq	r9, r0, sl, lsl #20
     1b4:	4f2d0100 	svcmi	0x002d0100
     1b8:	01000000 	mrseq	r0, (UNDEF: 0)
     1bc:	80050055 	andhi	r0, r5, r5, asr r0
     1c0:	c4f00003 	ldrbtgt	r0, [r0], #3
     1c4:	28000001 	stmdacs	r0, {r0}
     1c8:	06000001 	streq	r0, [r0], -r1
     1cc:	03055001 	movweq	r5, #20481	; 0x5001
     1d0:	f0001500 			; <UNDEFINED> instruction: 0xf0001500
     1d4:	03900500 	orrseq	r0, r0, #0
     1d8:	01c4f000 	biceq	pc, r4, r0
     1dc:	013f0000 	teqeq	pc, r0
     1e0:	01060000 	mrseq	r0, (UNDEF: 6)
     1e4:	10030550 	andne	r0, r3, r0, asr r5
     1e8:	00f00015 	rscseq	r0, r0, r5, lsl r0
     1ec:	00039805 	andeq	r9, r3, r5, lsl #16
     1f0:	0001e5f0 	strdeq	lr, [r1], -r0
     1f4:	00015300 	andeq	r5, r1, r0, lsl #6
     1f8:	50010600 	andpl	r0, r1, r0, lsl #12
     1fc:	00007502 	andeq	r7, r0, r2, lsl #10
     200:	0003a005 	andeq	sl, r3, r5
     204:	0001c4f0 	strdeq	ip, [r1], -r0
     208:	00016a00 	andeq	r6, r1, r0, lsl #20
     20c:	50010600 	andpl	r0, r1, r0, lsl #12
     210:	14fc0305 	ldrbtne	r0, [ip], #773	; 0x305
     214:	0500f000 	streq	pc, [r0, #-0]
     218:	f00003a8 			; <UNDEFINED> instruction: 0xf00003a8
     21c:	000001c4 	andeq	r0, r0, r4, asr #3
     220:	00000181 	andeq	r0, r0, r1, lsl #3
     224:	05500106 	ldrbeq	r0, [r0, #-262]	; 0x106
     228:	00151c03 	andseq	r1, r5, r3, lsl #24
     22c:	b40500f0 	strlt	r0, [r5], #-240	; 0xf0
     230:	c4f00003 	ldrbtgt	r0, [r0], #3
     234:	98000001 	stmdals	r0, {r0}
     238:	06000001 	streq	r0, [r0], -r1
     23c:	03055001 	movweq	r5, #20481	; 0x5001
     240:	f000152c 			; <UNDEFINED> instruction: 0xf000152c
     244:	03c00500 	biceq	r0, r0, #0
     248:	01c4f000 	biceq	pc, r4, r0
     24c:	01af0000 			; <UNDEFINED> instruction: 0x01af0000
     250:	01060000 	mrseq	r0, (UNDEF: 6)
     254:	3c030550 	cfstr32cc	mvfx0, [r3], {80}	; 0x50
     258:	00f00015 	rscseq	r0, r0, r5, lsl r0
     25c:	0003d40c 	andeq	sp, r3, ip, lsl #8
     260:	01c401f0 	strdeq	r0, [r4, #16]
     264:	01060000 	mrseq	r0, (UNDEF: 6)
     268:	4c030550 	cfstr32mi	mvfx0, [r3], {80}	; 0x50
     26c:	00f00015 	rscseq	r0, r0, r5, lsl r0
     270:	73010d00 	movwvc	r0, #7424	; 0x1d00
     274:	02000000 	andeq	r0, r0, #0
     278:	d8010106 	stmdale	r1, {r1, r2, r8}
     27c:	0e000001 	cdpeq	0, 0, cr0, cr0, cr1, {0}
     280:	000001d8 	ldrdeq	r0, [r0], -r8
     284:	de040f00 	cdple	15, 0, cr0, cr4, cr0, {0}
     288:	02000001 	andeq	r0, r0, #1
     28c:	00660801 	rsbeq	r0, r6, r1, lsl #16
     290:	010d0000 	mrseq	r0, (UNDEF: 13)
     294:	00000035 	andeq	r0, r0, r5, lsr r0
     298:	01010702 	tsteq	r1, r2, lsl #14
     29c:	000001f9 	strdeq	r0, [r0], -r9
     2a0:	00004f0e 	andeq	r4, r0, lr, lsl #30
     2a4:	01100000 	tsteq	r0, r0
     2a8:	0000007e 	andeq	r0, r0, lr, ror r0
     2ac:	01010403 	tsteq	r1, r3, lsl #8
     2b0:	04000110 	streq	r0, [r0], #-272	; 0x110
     2b4:	06030000 	streq	r0, [r3], -r0
     2b8:	5e000101 	adfpls	f0, f0, f1
     2bc:	02000004 	andeq	r0, r0, #4
     2c0:	00010900 	andeq	r0, r1, r0, lsl #18
     2c4:	0a010400 	beq	412cc <PHYS_OFFSET-0x7ffbed34>
     2c8:	01000000 	mrseq	r0, (UNDEF: 0)
     2cc:	000000f3 	strdeq	r0, [r0], -r3
     2d0:	0000009f 	muleq	r0, pc, r0	; <UNPREDICTABLE>
     2d4:	f00003f0 			; <UNDEFINED> instruction: 0xf00003f0
     2d8:	f00006f0 			; <UNDEFINED> instruction: 0xf00006f0
     2dc:	000001b4 			; <UNDEFINED> instruction: 0x000001b4
     2e0:	69050402 	stmdbvs	r5, {r1, sl}
     2e4:	0300746e 	movweq	r7, #1134	; 0x46e
     2e8:	000000ec 	andeq	r0, r0, ip, ror #1
     2ec:	0037d502 	eorseq	sp, r7, r2, lsl #10
     2f0:	04040000 	streq	r0, [r4], #-0
     2f4:	00005007 	andeq	r5, r0, r7
     2f8:	01550500 	cmpeq	r5, r0, lsl #10
     2fc:	03010000 	movweq	r0, #4096	; 0x1000
     300:	00008301 	andeq	r8, r0, r1, lsl #6
     304:	00830100 	addeq	r0, r3, r0, lsl #2
     308:	39060000 	stmdbcc	r6, {}	; <UNPREDICTABLE>
     30c:	01000001 	tsteq	r0, r1
     310:	00008303 	andeq	r8, r0, r3, lsl #6
     314:	01480600 	cmpeq	r8, r0, lsl #12
     318:	03010000 	movweq	r0, #4096	; 0x1000
     31c:	00000085 	andeq	r0, r0, r5, lsl #1
     320:	6e5f5f07 	cdpvs	15, 5, cr5, cr15, cr7, {0}
     324:	2c030100 	stfcss	f0, [r3], {-0}
     328:	08000000 	stmdaeq	r0, {}	; <UNPREDICTABLE>
     32c:	05010064 	streq	r0, [r1, #-100]	; 0x64
     330:	0000008c 	andeq	r0, r0, ip, lsl #1
     334:	01007308 	tsteq	r0, r8, lsl #6
     338:	00008c05 	andeq	r8, r0, r5, lsl #24
     33c:	04090000 	streq	r0, [r9], #-0
     340:	008b040a 	addeq	r0, fp, sl, lsl #8
     344:	0a0b0000 	beq	2c034c <PHYS_OFFSET-0x7fd3fcb4>
     348:	00009204 	andeq	r9, r0, r4, lsl #4
     34c:	08010400 	stmdaeq	r1, {sl}
     350:	0000005d 	andeq	r0, r0, sp, asr r0
     354:	00012c05 	andeq	r2, r1, r5, lsl #24
     358:	010d0100 	mrseq	r0, (UNDEF: 29)
     35c:	00000083 	andeq	r0, r0, r3, lsl #1
     360:	0000de01 	andeq	sp, r0, r1, lsl #28
     364:	01390600 	teqeq	r9, r0, lsl #12
     368:	0d010000 	stceq	0, cr0, [r1, #-0]
     36c:	00000083 	andeq	r0, r0, r3, lsl #1
     370:	00014806 	andeq	r4, r1, r6, lsl #16
     374:	850d0100 	strhi	r0, [sp, #-256]	; 0x100
     378:	07000000 	streq	r0, [r0, -r0]
     37c:	006e5f5f 	rsbeq	r5, lr, pc, asr pc
     380:	002c0d01 	eoreq	r0, ip, r1, lsl #26
     384:	64080000 	strvs	r0, [r8], #-0
     388:	8c0f0100 	stfhis	f0, [pc], {-0}
     38c:	08000000 	stmdaeq	r0, {}	; <UNPREDICTABLE>
     390:	0f010073 	svceq	0x00010073
     394:	0000008c 	andeq	r0, r0, ip, lsl #1
     398:	17010c00 	strne	r0, [r1, -r0, lsl #24]
     39c:	01000001 	tsteq	r0, r1
     3a0:	00830117 	addeq	r0, r3, r7, lsl r1
     3a4:	03f00000 	mvnseq	r0, #0
     3a8:	0414f000 	ldreq	pc, [r4], #-0
     3ac:	7d02f000 	stcvc	0, cr15, [r2, #-0]
     3b0:	01660100 	cmneq	r6, r0, lsl #2
     3b4:	390d0000 	stmdbcc	sp, {}	; <UNPREDICTABLE>
     3b8:	01000001 	tsteq	r0, r1
     3bc:	00008317 	andeq	r8, r0, r7, lsl r3
     3c0:	0d500100 	ldfeqe	f0, [r0, #-0]
     3c4:	00000148 	andeq	r0, r0, r8, asr #2
     3c8:	00851701 	addeq	r1, r5, r1, lsl #14
     3cc:	51010000 	mrspl	r0, (UNDEF: 1)
     3d0:	6e5f5f0e 	cdpvs	15, 5, cr5, cr15, cr14, {0}
     3d4:	2c170100 	ldfcss	f0, [r7], {-0}
     3d8:	01000000 	mrseq	r0, (UNDEF: 0)
     3dc:	003e0f52 	eorseq	r0, lr, r2, asr pc
     3e0:	03f00000 	mvnseq	r0, #0
     3e4:	0410f000 	ldreq	pc, [r0], #-0
     3e8:	1901f000 	stmdbne	r1, {ip, sp, lr, pc}
     3ec:	00006510 	andeq	r6, r0, r0, lsl r5
     3f0:	00005400 	andeq	r5, r0, r0, lsl #8
     3f4:	005a1100 	subseq	r1, sl, r0, lsl #2
     3f8:	51010000 	mrspl	r0, (UNDEF: 1)
     3fc:	00004f11 	andeq	r4, r0, r1, lsl pc
     400:	12500100 	subsne	r0, r0, #0
     404:	f00003f0 			; <UNDEFINED> instruction: 0xf00003f0
     408:	f0000410 			; <UNDEFINED> instruction: 0xf0000410
     40c:	00007013 	andeq	r7, r0, r3, lsl r0
     410:	00006900 	andeq	r6, r0, r0, lsl #18
     414:	00791300 	rsbseq	r1, r9, r0, lsl #6
     418:	007c0000 	rsbseq	r0, ip, r0
     41c:	00000000 	andeq	r0, r0, r0
     420:	e4010c00 	str	r0, [r1], #-3072	; 0xc00
     424:	01000000 	mrseq	r0, (UNDEF: 0)
     428:	0083011c 	addeq	r0, r3, ip, lsl r1
     42c:	04140000 	ldreq	r0, [r4], #-0
     430:	0478f000 	ldrbteq	pc, [r8], #-0	; <UNPREDICTABLE>
     434:	7d02f000 	stcvc	0, cr15, [r2, #-0]
     438:	02390100 	eorseq	r0, r9, #0
     43c:	390d0000 	stmdbcc	sp, {}	; <UNPREDICTABLE>
     440:	01000001 	tsteq	r0, r1
     444:	0000831c 	andeq	r8, r0, ip, lsl r3
     448:	14500100 	ldrbne	r0, [r0], #-256	; 0x100
     44c:	00000148 	andeq	r0, r0, r8, asr #2
     450:	00851c01 	addeq	r1, r5, r1, lsl #24
     454:	008f0000 	addeq	r0, pc, r0
     458:	5f150000 	svcpl	0x00150000
     45c:	01006e5f 	tsteq	r0, pc, asr lr
     460:	00002c1c 	andeq	r2, r0, ip, lsl ip
     464:	0000bb00 	andeq	fp, r0, r0, lsl #22
     468:	003e1600 	eorseq	r1, lr, r0, lsl #12
     46c:	041c0000 	ldreq	r0, [ip], #-0
     470:	043cf000 	ldrteq	pc, [ip], #-0	; <UNPREDICTABLE>
     474:	2101f000 	mrscs	pc, (UNDEF: 1)	; <UNPREDICTABLE>
     478:	000001f1 	strdeq	r0, [r0], -r1
     47c:	00006510 	andeq	r6, r0, r0, lsl r5
     480:	0000e700 	andeq	lr, r0, r0, lsl #14
     484:	005a1700 	subseq	r1, sl, r0, lsl #14
     488:	4f170000 	svcmi	0x00170000
     48c:	12000000 	andne	r0, r0, #0
     490:	f000041c 			; <UNDEFINED> instruction: 0xf000041c
     494:	f000043c 			; <UNDEFINED> instruction: 0xf000043c
     498:	00007013 	andeq	r7, r0, r3, lsl r0
     49c:	00010900 	andeq	r0, r1, r0, lsl #18
     4a0:	00791300 	rsbseq	r1, r9, r0, lsl #6
     4a4:	01270000 	teqeq	r7, r0
     4a8:	00000000 	andeq	r0, r0, r0
     4ac:	0000990f 	andeq	r9, r0, pc, lsl #18
     4b0:	00044000 	andeq	r4, r4, r0
     4b4:	000478f0 	strdeq	r7, [r4], -r0
     4b8:	101f01f0 			; <UNDEFINED> instruction: 0x101f01f0
     4bc:	000000c0 	andeq	r0, r0, r0, asr #1
     4c0:	00000145 	andeq	r0, r0, r5, asr #2
     4c4:	0000b510 	andeq	fp, r0, r0, lsl r5
     4c8:	00016500 	andeq	r6, r1, r0, lsl #10
     4cc:	00aa1000 	adceq	r1, sl, r0
     4d0:	01860000 	orreq	r0, r6, r0
     4d4:	40120000 	andsmi	r0, r2, r0
     4d8:	78f00004 	ldmvc	r0!, {r2}^
     4dc:	13f00004 	mvnsne	r0, #4
     4e0:	000000cb 	andeq	r0, r0, fp, asr #1
     4e4:	00000199 	muleq	r0, r9, r1
     4e8:	0000d413 	andeq	sp, r0, r3, lsl r4
     4ec:	0001ac00 	andeq	sl, r1, r0, lsl #24
     4f0:	00000000 	andeq	r0, r0, r0
     4f4:	0125010c 	teqeq	r5, ip, lsl #2
     4f8:	24010000 	strcs	r0, [r1], #-0
     4fc:	00008301 	andeq	r8, r0, r1, lsl #6
     500:	00047800 	andeq	r7, r4, r0, lsl #16
     504:	0004c8f0 	strdeq	ip, [r4], -r0
     508:	007d02f0 	ldrshteq	r0, [sp], #-32	; 0xffffffe0
     50c:	00028a01 	andeq	r8, r2, r1, lsl #20
     510:	00731500 	rsbseq	r1, r3, r0, lsl #10
     514:	00852401 	addeq	r2, r5, r1, lsl #8
     518:	01d20000 	bicseq	r0, r2, r0
     51c:	630e0000 	movwvs	r0, #57344	; 0xe000
     520:	25240100 	strcs	r0, [r4, #-256]!	; 0x100
     524:	01000000 	mrseq	r0, (UNDEF: 0)
     528:	006e1551 	rsbeq	r1, lr, r1, asr r5
     52c:	002c2401 	eoreq	r2, ip, r1, lsl #8
     530:	020c0000 	andeq	r0, ip, #0
     534:	5f180000 	svcpl	0x00180000
     538:	26010073 			; <UNDEFINED> instruction: 0x26010073
     53c:	0000028a 	andeq	r0, r0, sl, lsl #5
     540:	0000022a 	andeq	r0, r0, sl, lsr #4
     544:	90040a00 	andls	r0, r4, r0, lsl #20
     548:	19000002 	stmdbne	r0, {r1}
     54c:	00000092 	muleq	r0, r2, r0
     550:	011e010c 	tsteq	lr, ip, lsl #2
     554:	33010000 	movwcc	r0, #4096	; 0x1000
     558:	00002c01 	andeq	r2, r0, r1, lsl #24
     55c:	0004c800 	andeq	ip, r4, r0, lsl #16
     560:	0004fcf0 	strdeq	pc, [r4], -r0
     564:	007d02f0 	ldrshteq	r0, [sp], #-32	; 0xffffffe0
     568:	0002ce01 	andeq	ip, r2, r1, lsl #28
     56c:	00731500 	rsbseq	r1, r3, r0, lsl #10
     570:	02ce3301 	sbceq	r3, lr, #67108864	; 0x4000000
     574:	02630000 	rsbeq	r0, r3, #0
     578:	73180000 	tstvc	r8, #0
     57c:	35010063 	strcc	r0, [r1, #-99]	; 0x63
     580:	000002ce 	andeq	r0, r0, lr, asr #5
     584:	0000029d 	muleq	r0, sp, r2
     588:	d4040a00 	strle	r0, [r4], #-2560	; 0xa00
     58c:	19000002 	stmdbne	r0, {r1}
     590:	000002d9 	ldrdeq	r0, [r0], -r9
     594:	66080104 	strvs	r0, [r8], -r4, lsl #2
     598:	0c000000 	stceq	0, cr0, [r0], {-0}
     59c:	00014e01 	andeq	r4, r1, r1, lsl #28
     5a0:	013c0100 	teqeq	ip, r0, lsl #2
     5a4:	00000083 	andeq	r0, r0, r3, lsl #1
     5a8:	f00004fc 			; <UNDEFINED> instruction: 0xf00004fc
     5ac:	f0000520 			; <UNDEFINED> instruction: 0xf0000520
     5b0:	01007d02 	tsteq	r0, r2, lsl #26
     5b4:	00000333 	andeq	r0, r0, r3, lsr r3
     5b8:	0100730e 	tsteq	r0, lr, lsl #6
     5bc:	0000833c 	andeq	r8, r0, ip, lsr r3
     5c0:	15500100 	ldrbne	r0, [r0, #-256]	; 0x100
     5c4:	3c010063 	stccc	0, cr0, [r1], {99}	; 0x63
     5c8:	00000025 	andeq	r0, r0, r5, lsr #32
     5cc:	000002d4 	ldrdeq	r0, [r0], -r4
     5d0:	00010a14 	andeq	r0, r1, r4, lsl sl
     5d4:	2c3c0100 	ldfcss	f0, [ip], #-0
     5d8:	f5000000 			; <UNDEFINED> instruction: 0xf5000000
     5dc:	18000002 	stmdane	r0, {r1}
     5e0:	01007378 	tsteq	r0, r8, ror r3
     5e4:	0003333e 	andeq	r3, r3, lr, lsr r3
     5e8:	00032500 	andeq	r2, r3, r0, lsl #10
     5ec:	040a0000 	streq	r0, [sl], #-0
     5f0:	000002d9 	ldrdeq	r0, [r0], -r9
     5f4:	00fc011a 	rscseq	r0, ip, sl, lsl r1
     5f8:	44010000 	strmi	r0, [r1], #-0
     5fc:	00002501 	andeq	r2, r0, r1, lsl #10
     600:	00052000 	andeq	r2, r5, r0
     604:	000588f0 	strdeq	r8, [r5], -r0
     608:	000343f0 	strdeq	r4, [r3], -r0
     60c:	039f0100 	orrseq	r0, pc, #0
     610:	70150000 	andsvc	r0, r5, r0
     614:	44010031 	strmi	r0, [r1], #-49	; 0x31
     618:	00000085 	andeq	r0, r0, r5, lsl #1
     61c:	00000363 	andeq	r0, r0, r3, ror #6
     620:	00327015 	eorseq	r7, r2, r5, lsl r0
     624:	00854401 	addeq	r4, r5, r1, lsl #8
     628:	03840000 	orreq	r0, r4, #0
     62c:	6e150000 	cdpvs	0, 1, cr0, cr5, cr0, {0}
     630:	2c440100 	stfcse	f0, [r4], {-0}
     634:	a5000000 	strge	r0, [r0, #-0]
     638:	18000003 	stmdane	r0, {r0, r1}
     63c:	0031705f 	eorseq	r7, r1, pc, asr r0
     640:	028a4601 	addeq	r4, sl, #1048576	; 0x100000
     644:	03c50000 	biceq	r0, r5, #0
     648:	5f180000 	svcpl	0x00180000
     64c:	01003270 	tsteq	r0, r0, ror r2
     650:	00028a47 	andeq	r8, r2, r7, asr #20
     654:	0003d800 	andeq	sp, r3, r0, lsl #16
     658:	010c0000 	mrseq	r0, (UNDEF: 12)
     65c:	00000110 	andeq	r0, r0, r0, lsl r1
     660:	25015601 	strcs	r5, [r1, #-1537]	; 0x601
     664:	88000000 	stmdahi	r0, {}	; <UNPREDICTABLE>
     668:	00f00005 	rscseq	r0, r0, r5
     66c:	02f00006 	rscseq	r0, r0, #6
     670:	d901007d 	stmdble	r1, {r0, r2, r3, r4, r5, r6}
     674:	15000003 	strne	r0, [r0, #-3]
     678:	01003173 	tsteq	r0, r3, ror r1
     67c:	0002ce56 	andeq	ip, r2, r6, asr lr
     680:	0003eb00 	andeq	lr, r3, r0, lsl #22
     684:	32731500 	rsbscc	r1, r3, #0
     688:	ce560100 	rdfgts	f0, f6, f0
     68c:	fe000002 	cdp2	0, 0, cr0, cr0, cr2, {0}
     690:	00000003 	andeq	r0, r0, r3
     694:	0140011a 	cmpeq	r0, sl, lsl r1
     698:	6a010000 	bvs	406a0 <PHYS_OFFSET-0x7ffbf960>
     69c:	00002501 	andeq	r2, r0, r1, lsl #10
     6a0:	00060000 	andeq	r0, r6, r0
     6a4:	0006b0f0 	strdeq	fp, [r6], -r0
     6a8:	000429f0 	strdeq	r2, [r4], -r0
     6ac:	04210100 	strteq	r0, [r1], #-256	; 0x100
     6b0:	73150000 	tstvc	r5, #0
     6b4:	6a010031 	bvs	40780 <PHYS_OFFSET-0x7ffbf880>
     6b8:	000002ce 	andeq	r0, r0, lr, asr #5
     6bc:	00000449 	andeq	r0, r0, r9, asr #8
     6c0:	00327315 	eorseq	r7, r2, r5, lsl r3
     6c4:	02ce6a01 	sbceq	r6, lr, #4096	; 0x1000
     6c8:	045c0000 	ldrbeq	r0, [ip], #-0
     6cc:	6e150000 	cdpvs	0, 1, cr0, cr5, cr0, {0}
     6d0:	2c6a0100 	stfcse	f0, [sl], #-0
     6d4:	87000000 	strhi	r0, [r0, -r0]
     6d8:	00000004 	andeq	r0, r0, r4
     6dc:	0103011b 	tsteq	r3, fp, lsl r1
     6e0:	7e010000 	cdpvc	0, 0, cr0, cr1, cr0, {0}
     6e4:	00033301 	andeq	r3, r3, r1, lsl #6
     6e8:	0006b000 	andeq	fp, r6, r0
     6ec:	0006f0f0 	strdeq	pc, [r6], -r0
     6f0:	007d02f0 	ldrshteq	r0, [sp], #-32	; 0xffffffe0
     6f4:	00731501 	rsbseq	r1, r3, r1, lsl #10
     6f8:	02ce7e01 	sbceq	r7, lr, #16
     6fc:	04d10000 	ldrbeq	r0, [r1], #0
     700:	630e0000 	movwvs	r0, #57344	; 0xe000
     704:	257e0100 	ldrbcs	r0, [lr, #-256]!	; 0x100
     708:	01000000 	mrseq	r0, (UNDEF: 0)
     70c:	735f1851 	cmpvc	pc, #5308416	; 0x510000
     710:	8a800100 	bhi	fe000b18 <_hmm_pgtable+0xdffab18>
     714:	f2000002 	vhadd.s8	d0, d0, d2
     718:	00000004 	andeq	r0, r0, r4
     71c:	000b2300 	andeq	r2, fp, r0, lsl #6
     720:	7e000200 	cdpvc	2, 0, cr0, cr0, cr0, {0}
     724:	04000002 	streq	r0, [r0], #-2
     728:	00000a01 	andeq	r0, r0, r1, lsl #20
     72c:	039e0100 	orrseq	r0, lr, #0
     730:	009f0000 	addseq	r0, pc, r0
     734:	06f00000 	ldrbteq	r0, [r0], r0
     738:	0a5cf000 	beq	173c740 <PHYS_OFFSET-0x7e8c38c0>
     73c:	02edf000 	rsceq	pc, sp, #0
     740:	95020000 	strls	r0, [r2, #-0]
     744:	02000003 	andeq	r0, r0, #3
     748:	00003004 	andeq	r3, r0, r4
     74c:	07040300 	streq	r0, [r4, -r0, lsl #6]
     750:	00000050 	andeq	r0, r0, r0, asr r0
     754:	00038c02 	andeq	r8, r3, r2, lsl #24
     758:	42050200 	andmi	r0, r5, #0
     75c:	03000000 	movweq	r0, #0
     760:	00460708 	subeq	r0, r6, r8, lsl #14
     764:	ac020000 	stcge	0, cr0, [r2], {-0}
     768:	02000002 	andeq	r0, r0, #2
     76c:	00005406 	andeq	r5, r0, r6, lsl #8
     770:	08010300 	stmdaeq	r1, {r8, r9}
     774:	0000005d 	andeq	r0, r0, sp, asr r0
     778:	04030404 	streq	r0, [r3], #-1028	; 0x404
     77c:	00000070 	andeq	r0, r0, r0, ror r0
     780:	00021e05 	andeq	r1, r2, r5, lsl #28
     784:	72050000 	andvc	r0, r5, #0
     788:	7f000003 	svcvc	0x00000003
     78c:	02c40200 	sbceq	r0, r4, #0
     790:	07030000 	streq	r0, [r3, -r0]
     794:	0000005b 	andeq	r0, r0, fp, asr r0
     798:	0f040806 	svceq	0x00040806
     79c:	000001c0 	andeq	r0, r0, r0, asr #3
     7a0:	00033507 	andeq	r3, r3, r7, lsl #10
     7a4:	c0110400 	andsgt	r0, r1, r0, lsl #8
     7a8:	04000001 	streq	r0, [r0], #-1
     7ac:	23021f01 	movwcs	r1, #12033	; 0x2f01
     7b0:	04750700 	ldrbteq	r0, [r5], #-1792	; 0x700
     7b4:	12040000 	andne	r0, r4, #0
     7b8:	000001c0 	andeq	r0, r0, r0, asr #3
     7bc:	021e0104 	andseq	r0, lr, #1
     7c0:	61080023 	tstvs	r8, r3, lsr #32
     7c4:	16040069 	strne	r0, [r4], -r9, rrx
     7c8:	000001c0 	andeq	r0, r0, r0, asr #3
     7cc:	021b0304 	andseq	r0, fp, #268435456	; 0x10000000
     7d0:	6e080023 	cdpvs	0, 0, cr0, cr8, cr3, {1}
     7d4:	17040073 	smlsdxne	r4, r3, r0, r0
     7d8:	000001c0 	andeq	r0, r0, r0, asr #3
     7dc:	021a0104 	andseq	r0, sl, #1
     7e0:	eb070023 	bl	1c0874 <PHYS_OFFSET-0x7fe3f78c>
     7e4:	04000001 	streq	r0, [r0], #-1
     7e8:	0001c018 	andeq	ip, r1, r8, lsl r0
     7ec:	19010400 	stmdbne	r1, {sl}
     7f0:	08002302 	stmdaeq	r0, {r1, r8, r9, sp}
     7f4:	04006f72 	streq	r6, [r0], #-3954	; 0xf72
     7f8:	0001c019 	andeq	ip, r1, r9, lsl r0
     7fc:	18010400 	stmdane	r1, {sl}
     800:	08002302 	stmdaeq	r0, {r1, r8, r9, sp}
     804:	04006873 	streq	r6, [r0], #-2163	; 0x873
     808:	0001c01a 	andeq	ip, r1, sl, lsl r0
     80c:	16020400 	strne	r0, [r2], -r0, lsl #8
     810:	08002302 	stmdaeq	r0, {r1, r8, r9, sp}
     814:	04006661 	streq	r6, [r0], #-1633	; 0x661
     818:	0001c01b 	andeq	ip, r1, fp, lsl r0
     81c:	15010400 	strne	r0, [r1, #-1024]	; 0x400
     820:	08002302 	stmdaeq	r0, {r1, r8, r9, sp}
     824:	0400676e 	streq	r6, [r0], #-1902	; 0x76e
     828:	0001c01c 	andeq	ip, r1, ip, lsl r0
     82c:	14010400 	strne	r0, [r1], #-1024	; 0x400
     830:	07002302 	streq	r2, [r0, -r2, lsl #6]
     834:	00000252 	andeq	r0, r0, r2, asr r2
     838:	01c01f04 	biceq	r1, r0, r4, lsl #30
     83c:	1c040000 	stcne	0, cr0, [r4], {-0}
     840:	01230200 	teqeq	r3, r0, lsl #4
     844:	7a627308 	bvc	189d46c <PHYS_OFFSET-0x7e762b94>
     848:	c0200400 	eorgt	r0, r0, r0, lsl #8
     84c:	04000001 	streq	r0, [r0], #-1
     850:	23020c0c 	movwcs	r0, #11276	; 0x2c0c
     854:	02810704 	addeq	r0, r1, #1048576	; 0x100000
     858:	24040000 	strcs	r0, [r4], #-0
     85c:	000001c0 	andeq	r0, r0, r0, asr #3
     860:	020b0104 	andeq	r0, fp, #1
     864:	70080423 	andvc	r0, r8, r3, lsr #8
     868:	04006e78 	streq	r6, [r0], #-3704	; 0xe78
     86c:	0001c025 	andeq	ip, r1, r5, lsr #32
     870:	0a010400 	beq	41878 <PHYS_OFFSET-0x7ffbe788>
     874:	08042302 	stmdaeq	r4, {r1, r8, r9, sp}
     878:	04006e78 	streq	r6, [r0], #-3704	; 0xe78
     87c:	0001c026 	andeq	ip, r1, r6, lsr #32
     880:	09010400 	stmdbeq	r1, {sl}
     884:	07042302 	streq	r2, [r4, -r2, lsl #6]
     888:	0000028b 	andeq	r0, r0, fp, lsl #5
     88c:	01c02704 	biceq	r2, r0, r4, lsl #14
     890:	04040000 	streq	r0, [r4], #-0
     894:	04230205 	strteq	r0, [r3], #-517	; 0x205
     898:	00033b07 	andeq	r3, r3, r7, lsl #22
     89c:	c02b0400 	eorgt	r0, fp, r0, lsl #8
     8a0:	04000001 	streq	r0, [r0], #-1
     8a4:	23020401 	movwcs	r0, #9217	; 0x2401
     8a8:	6e780804 	cdpvs	8, 7, cr0, cr8, cr4, {0}
     8ac:	2c040074 	stccs	0, cr0, [r4], {116}	; 0x74
     8b0:	000001c0 	andeq	r0, r0, r0, asr #3
     8b4:	02030104 	andeq	r0, r3, #1
     8b8:	61080423 	tstvs	r8, r3, lsr #8
     8bc:	04007470 	streq	r7, [r0], #-1136	; 0x470
     8c0:	0001c02d 	andeq	ip, r1, sp, lsr #32
     8c4:	01020400 	tsteq	r2, r0, lsl #8
     8c8:	08042302 	stmdaeq	r4, {r1, r8, r9, sp}
     8cc:	0074736e 	rsbseq	r7, r4, lr, ror #6
     8d0:	01c02e04 	biceq	r2, r0, r4, lsl #28
     8d4:	01040000 	mrseq	r0, (UNDEF: 4)
     8d8:	04230200 	strteq	r0, [r3], #-512	; 0x200
     8dc:	07040300 	streq	r0, [r4, -r0, lsl #6]
     8e0:	0000004b 	andeq	r0, r0, fp, asr #32
     8e4:	00018d02 	andeq	r8, r1, r2, lsl #26
     8e8:	7b2f0400 	blvc	bc18f0 <PHYS_OFFSET-0x7f43e710>
     8ec:	06000000 	streq	r0, [r0], -r0
     8f0:	d7330408 	ldrle	r0, [r3, -r8, lsl #8]!
     8f4:	07000002 	streq	r0, [r0, -r2]
     8f8:	00000335 	andeq	r0, r0, r5, lsr r3
     8fc:	01c03504 	biceq	r3, r0, r4, lsl #10
     900:	01040000 	mrseq	r0, (UNDEF: 4)
     904:	0023021f 	eoreq	r0, r3, pc, lsl r2
     908:	00047507 	andeq	r7, r4, r7, lsl #10
     90c:	c0360400 	eorsgt	r0, r6, r0, lsl #8
     910:	04000001 	streq	r0, [r0], #-1
     914:	23021e01 	movwcs	r1, #11777	; 0x2e01
     918:	026b0700 	rsbeq	r0, fp, #0
     91c:	3a040000 	bcc	100924 <PHYS_OFFSET-0x7feff6dc>
     920:	000001c0 	andeq	r0, r0, r0, asr #3
     924:	021a0404 	andseq	r0, sl, #67108864	; 0x4000000
     928:	eb070023 	bl	1c09bc <PHYS_OFFSET-0x7fe3f644>
     92c:	04000003 	streq	r0, [r0], #-3
     930:	0001c03b 	andeq	ip, r1, fp, lsr r0
     934:	19010400 	stmdbne	r1, {sl}
     938:	07002302 	streq	r2, [r0, -r2, lsl #6]
     93c:	0000027b 	andeq	r0, r0, fp, ror r2
     940:	01c03c04 	biceq	r3, r0, r4, lsl #24
     944:	01040000 	mrseq	r0, (UNDEF: 4)
     948:	00230218 	eoreq	r0, r3, r8, lsl r2
     94c:	00687308 	rsbeq	r7, r8, r8, lsl #6
     950:	01c03d04 	biceq	r3, r0, r4, lsl #26
     954:	02040000 	andeq	r0, r4, #0
     958:	00230216 	eoreq	r0, r3, r6, lsl r2
     95c:	00666108 	rsbeq	r6, r6, r8, lsl #2
     960:	01c03e04 	biceq	r3, r0, r4, lsl #28
     964:	01040000 	mrseq	r0, (UNDEF: 4)
     968:	00230215 	eoreq	r0, r3, r5, lsl r2
     96c:	00029607 	andeq	r9, r2, r7, lsl #12
     970:	c03f0400 	eorsgt	r0, pc, r0, lsl #8
     974:	04000001 	streq	r0, [r0], #-1
     978:	23021401 	movwcs	r1, #9217	; 0x2401
     97c:	02520700 	subseq	r0, r2, #0
     980:	42040000 	andmi	r0, r4, #0
     984:	000001c0 	andeq	r0, r0, r0, asr #3
     988:	02001c04 	andeq	r1, r0, #1024	; 0x400
     98c:	91070123 	tstls	r7, r3, lsr #2
     990:	04000002 	streq	r0, [r0], #-2
     994:	0001c043 	andeq	ip, r1, r3, asr #32
     998:	0c0c0400 	cfstrseq	mvf0, [ip], {-0}
     99c:	07042302 	streq	r2, [r4, -r2, lsl #6]
     9a0:	00000281 	andeq	r0, r0, r1, lsl #5
     9a4:	01c04704 	biceq	r4, r0, r4, lsl #14
     9a8:	01040000 	mrseq	r0, (UNDEF: 4)
     9ac:	0423020b 	strteq	r0, [r3], #-523	; 0x20b
     9b0:	00024d07 	andeq	r4, r2, r7, lsl #26
     9b4:	c0480400 	subgt	r0, r8, r0, lsl #8
     9b8:	04000001 	streq	r0, [r0], #-1
     9bc:	23020a01 	movwcs	r0, #10753	; 0x2a01
     9c0:	6e780804 	cdpvs	8, 7, cr0, cr8, cr4, {0}
     9c4:	c0490400 	subgt	r0, r9, r0, lsl #8
     9c8:	04000001 	streq	r0, [r0], #-1
     9cc:	23020901 	movwcs	r0, #10497	; 0x2901
     9d0:	028b0704 	addeq	r0, fp, #1048576	; 0x100000
     9d4:	4a040000 	bmi	1009dc <PHYS_OFFSET-0x7feff624>
     9d8:	000001c0 	andeq	r0, r0, r0, asr #3
     9dc:	02050404 	andeq	r0, r5, #67108864	; 0x4000000
     9e0:	86070423 	strhi	r0, [r7], -r3, lsr #8
     9e4:	04000002 	streq	r0, [r0], #-2
     9e8:	0001c04c 	andeq	ip, r1, ip, asr #32
     9ec:	00050400 	andeq	r0, r5, r0, lsl #8
     9f0:	00042302 	andeq	r2, r4, r2, lsl #6
     9f4:	0001ba02 	andeq	fp, r1, r2, lsl #20
     9f8:	d24d0400 	suble	r0, sp, #0
     9fc:	06000001 	streq	r0, [r0], -r1
     a00:	40540408 	subsmi	r0, r4, r8, lsl #8
     a04:	07000003 	streq	r0, [r0, -r3]
     a08:	00000335 	andeq	r0, r0, r5, lsr r3
     a0c:	01c05604 	biceq	r5, r0, r4, lsl #12
     a10:	01040000 	mrseq	r0, (UNDEF: 4)
     a14:	0023021f 	eoreq	r0, r3, pc, lsl r2
     a18:	00047507 	andeq	r7, r4, r7, lsl #10
     a1c:	c0570400 	subsgt	r0, r7, r0, lsl #8
     a20:	04000001 	streq	r0, [r0], #-1
     a24:	23021e01 	movwcs	r1, #11777	; 0x2e01
     a28:	01690700 	cmneq	r9, r0, lsl #14
     a2c:	59040000 	stmdbpl	r4, {}	; <UNPREDICTABLE>
     a30:	000001c0 	andeq	r0, r0, r0, asr #3
     a34:	02140a04 	andseq	r0, r4, #16384	; 0x4000
     a38:	52070023 	andpl	r0, r7, #35	; 0x23
     a3c:	04000002 	streq	r0, [r0], #-2
     a40:	0001c05c 	andeq	ip, r1, ip, asr r0
     a44:	001c0400 	andseq	r0, ip, r0, lsl #8
     a48:	07012302 	streq	r2, [r1, -r2, lsl #6]
     a4c:	00000164 	andeq	r0, r0, r4, ror #2
     a50:	01c05e04 	biceq	r5, r0, r4, lsl #28
     a54:	18040000 	stmdane	r4, {}	; <UNPREDICTABLE>
     a58:	04230200 	strteq	r0, [r3], #-512	; 0x200
     a5c:	02f00200 	rscseq	r0, r0, #0
     a60:	5f040000 	svcpl	0x00040000
     a64:	000002e2 	andeq	r0, r0, r2, ror #5
     a68:	61040809 	tstvs	r4, r9, lsl #16
     a6c:	0000037f 	andeq	r0, r0, pc, ror r3
     a70:	0003b90a 	andeq	fp, r3, sl, lsl #18
     a74:	37620400 	strbcc	r0, [r2, -r0, lsl #8]!
     a78:	0b000000 	bleq	a80 <PHYS_OFFSET-0x7ffff580>
     a7c:	04007470 	streq	r7, [r0], #-1136	; 0x470
     a80:	0001c763 	andeq	ip, r1, r3, ror #14
     a84:	32700b00 	rsbscc	r0, r0, #0
     a88:	6404006d 	strvs	r0, [r4], #-109	; 0x6d
     a8c:	000002d7 	ldrdeq	r0, [r0], -r7
     a90:	00017f0a 	andeq	r7, r1, sl, lsl #30
     a94:	40650400 	rsbmi	r0, r5, r0, lsl #8
     a98:	00000003 	andeq	r0, r0, r3
     a9c:	0001f002 	andeq	pc, r1, r2
     aa0:	4b660400 	blmi	1981aa8 <PHYS_OFFSET-0x7e67e558>
     aa4:	02000003 	andeq	r0, r0, #3
     aa8:	00000312 	andeq	r0, r0, r2, lsl r3
     aac:	00490905 	subeq	r0, r9, r5, lsl #18
     ab0:	04040000 	streq	r0, [r4], #-0
     ab4:	03aa0b01 			; <UNDEFINED> instruction: 0x03aa0b01
     ab8:	b4050000 	strlt	r0, [r5], #-0
     abc:	00000002 	andeq	r0, r0, r2
     ac0:	00020e05 	andeq	r0, r2, r5, lsl #28
     ac4:	02000100 	andeq	r0, r0, #0
     ac8:	0000029b 	muleq	r0, fp, r2
     acc:	03950e01 	orrseq	r0, r5, #16
     ad0:	710c0000 	mrsvc	r0, (UNDEF: 12)
     ad4:	44000002 	strmi	r0, [r0], #-2
     ad8:	04051001 	streq	r1, [r5], #-1
     adc:	df0d0000 	svcle	0x000d0000
     ae0:	01000000 	mrseq	r0, (UNDEF: 0)
     ae4:	00003011 	andeq	r3, r0, r1, lsl r0
     ae8:	00230200 	eoreq	r0, r3, r0, lsl #4
     aec:	0063700e 	rsbeq	r7, r3, lr
     af0:	00301201 	eorseq	r1, r0, r1, lsl #4
     af4:	23020000 	movwcs	r0, #8192	; 0x2000
     af8:	70670e04 	rsbvc	r0, r7, r4, lsl #28
     afc:	13010072 	movwne	r0, #4210	; 0x1072
     b00:	00000405 	andeq	r0, r0, r5, lsl #8
     b04:	0e082302 	cdpeq	3, 0, cr2, cr8, cr2, {0}
     b08:	01007073 	tsteq	r0, r3, ror r0
     b0c:	00003014 	andeq	r3, r0, r4, lsl r0
     b10:	3c230200 	sfmcc	f0, 4, [r3], #-0
     b14:	00726c0e 	rsbseq	r6, r2, lr, lsl #24
     b18:	00301501 	eorseq	r1, r0, r1, lsl #10
     b1c:	23020000 	movwcs	r0, #8192	; 0x2000
     b20:	300f0040 	andcc	r0, pc, r0, asr #32
     b24:	15000000 	strne	r0, [r0, #-0]
     b28:	10000004 	andne	r0, r0, r4
     b2c:	00000415 	andeq	r0, r0, r5, lsl r4
     b30:	0403000c 	streq	r0, [r3], #-12
     b34:	0002fc07 	andeq	pc, r2, r7, lsl #24
     b38:	03600c00 	cmneq	r0, #0
     b3c:	014c0000 	mrseq	r0, (UNDEF: 76)
     b40:	00045318 	andeq	r5, r4, r8, lsl r3
     b44:	02760d00 	rsbseq	r0, r6, #0
     b48:	19010000 	stmdbne	r1, {}	; <UNPREDICTABLE>
     b4c:	000003b5 			; <UNDEFINED> instruction: 0x000003b5
     b50:	0d002302 	stceq	3, cr2, [r0, #-8]
     b54:	000001b5 			; <UNDEFINED> instruction: 0x000001b5
     b58:	04531a01 	ldrbeq	r1, [r3], #-2561	; 0xa01
     b5c:	23020000 	movwcs	r0, #8192	; 0x2000
     b60:	02480d44 	subeq	r0, r8, #4352	; 0x1100
     b64:	1b010000 	blne	40b6c <PHYS_OFFSET-0x7ffbf494>
     b68:	0000038a 	andeq	r0, r0, sl, lsl #7
     b6c:	00482302 	subeq	r2, r8, r2, lsl #6
     b70:	037f0411 	cmneq	pc, #285212672	; 0x11000000
     b74:	01120000 	tsteq	r2, r0
     b78:	000003a6 	andeq	r0, r0, r6, lsr #7
     b7c:	01012f01 	tsteq	r1, r1, lsl #30
     b80:	0001d213 	andeq	sp, r1, r3, lsl r2
     b84:	018b0100 	orreq	r0, fp, r0, lsl #2
     b88:	f00006f0 			; <UNDEFINED> instruction: 0xf00006f0
     b8c:	f00007b0 			; <UNDEFINED> instruction: 0xf00007b0
     b90:	00000510 	andeq	r0, r0, r0, lsl r5
     b94:	00050201 	andeq	r0, r5, r1, lsl #4
     b98:	01c51400 	biceq	r1, r5, r0, lsl #8
     b9c:	8b010000 	blhi	40ba4 <PHYS_OFFSET-0x7ffbf45c>
     ba0:	00000502 	andeq	r0, r0, r2, lsl #10
     ba4:	00000530 	andeq	r0, r0, r0, lsr r5
     ba8:	0003e315 	andeq	lr, r3, r5, lsl r3
     bac:	088d0100 	stmeq	sp, {r8}
     bb0:	67000005 	strvs	r0, [r0, -r5]
     bb4:	15000005 	strne	r0, [r0, #-5]
     bb8:	00000276 	andeq	r0, r0, r6, ror r2
     bbc:	05028e01 	streq	r8, [r2, #-3585]	; 0xe01
     bc0:	059d0000 	ldreq	r0, [sp]
     bc4:	69160000 	ldmdbvs	r6, {}	; <UNPREDICTABLE>
     bc8:	0e8f0100 	rmfeqe	f0, f7, f0
     bcc:	c8000005 	stmdagt	r0, {r0, r2}
     bd0:	17000005 	strne	r0, [r0, -r5]
     bd4:	00726368 	rsbseq	r6, r2, r8, ror #6
     bd8:	00259001 	eoreq	r9, r5, r1
     bdc:	00180000 	andseq	r0, r8, r0
     be0:	77f00007 	ldrbvc	r0, [r0, r7]!
     be4:	d400000a 	strle	r0, [r0], #-10
     be8:	19000004 	stmdbne	r0, {r2}
     bec:	30015001 	andcc	r5, r1, r1
     bf0:	07881a00 	streq	r1, [r8, r0, lsl #20]
     bf4:	0a8bf000 	beq	fe2fcbfc <_hmm_pgtable+0xe2f6bfc>
     bf8:	90180000 	andsls	r0, r8, r0
     bfc:	77f00007 	ldrbvc	r0, [r0, r7]!
     c00:	f000000a 			; <UNDEFINED> instruction: 0xf000000a
     c04:	19000004 	stmdbne	r0, {r2}
     c08:	31015001 	tstcc	r1, r1
     c0c:	079c1b00 	ldreq	r1, [ip, r0, lsl #22]
     c10:	a801f000 	stmdage	r1, {ip, sp, lr, pc}
     c14:	1900000a 	stmdbne	r0, {r1, r3}
     c18:	74025001 	strvc	r5, [r2], #-1
     c1c:	11000000 	mrsne	r0, (UNDEF: 0)
     c20:	0003b504 	andeq	fp, r3, r4, lsl #10
     c24:	1c041100 	stfnes	f1, [r4], {-0}
     c28:	1c000004 	stcne	0, cr0, [r0], {4}
     c2c:	6e690504 	cdpvs	5, 6, cr0, cr9, cr4, {0}
     c30:	011d0074 	tsteq	sp, r4, ror r0
     c34:	000003be 			; <UNDEFINED> instruction: 0x000003be
     c38:	b0012701 	andlt	r2, r1, r1, lsl #14
     c3c:	38f00007 	ldmcc	r0!, {r0, r1, r2}^
     c40:	e8f00008 	ldm	r0!, {r3}^
     c44:	01000005 	tsteq	r0, r5
     c48:	0000060c 	andeq	r0, r0, ip, lsl #12
     c4c:	00027614 	andeq	r7, r2, r4, lsl r6
     c50:	02270100 	eoreq	r0, r7, #0
     c54:	08000005 	stmdaeq	r0, {r0, r2}
     c58:	18000006 	stmdane	r0, {r1, r2}
     c5c:	f00007d0 			; <UNDEFINED> instruction: 0xf00007d0
     c60:	00000abc 			; <UNDEFINED> instruction: 0x00000abc
     c64:	00000555 	andeq	r0, r0, r5, asr r5
     c68:	05500119 	ldrbeq	r0, [r0, #-281]	; 0x119
     c6c:	00155c03 	andseq	r5, r5, r3, lsl #24
     c70:	d81a00f0 	ldmdale	sl, {r4, r5, r6, r7}
     c74:	ddf00007 	ldclle	0, cr0, [r0, #28]!
     c78:	1800000a 	stmdane	r0, {r1, r3}
     c7c:	f00007e0 			; <UNDEFINED> instruction: 0xf00007e0
     c80:	00000abc 			; <UNDEFINED> instruction: 0x00000abc
     c84:	00000572 	andeq	r0, r0, r2, ror r5
     c88:	02500119 	subseq	r0, r0, #1073741830	; 0x40000006
     c8c:	18000074 	stmdane	r0, {r2, r4, r5, r6}
     c90:	f00007ec 			; <UNDEFINED> instruction: 0xf00007ec
     c94:	00000abc 			; <UNDEFINED> instruction: 0x00000abc
     c98:	00000589 	andeq	r0, r0, r9, lsl #11
     c9c:	05500119 	ldrbeq	r0, [r0, #-281]	; 0x119
     ca0:	00156403 	andseq	r6, r5, r3, lsl #8
     ca4:	f41a00f0 			; <UNDEFINED> instruction: 0xf41a00f0
     ca8:	ddf00007 	ldclle	0, cr0, [r0, #28]!
     cac:	1800000a 	stmdane	r0, {r1, r3}
     cb0:	f00007fc 			; <UNDEFINED> instruction: 0xf00007fc
     cb4:	00000abc 			; <UNDEFINED> instruction: 0x00000abc
     cb8:	000005a6 	andeq	r0, r0, r6, lsr #11
     cbc:	02500119 	subseq	r0, r0, #1073741830	; 0x40000006
     cc0:	18000074 	stmdane	r0, {r2, r4, r5, r6}
     cc4:	f0000808 			; <UNDEFINED> instruction: 0xf0000808
     cc8:	00000abc 			; <UNDEFINED> instruction: 0x00000abc
     ccc:	000005bd 			; <UNDEFINED> instruction: 0x000005bd
     cd0:	05500119 	ldrbeq	r0, [r0, #-281]	; 0x119
     cd4:	00156803 	andseq	r6, r5, r3, lsl #16
     cd8:	101a00f0 	ldrshne	r0, [sl], -r0	; <UNPREDICTABLE>
     cdc:	ddf00008 	ldclle	0, cr0, [r0, #32]!
     ce0:	1800000a 	stmdane	r0, {r1, r3}
     ce4:	f0000818 			; <UNDEFINED> instruction: 0xf0000818
     ce8:	00000abc 			; <UNDEFINED> instruction: 0x00000abc
     cec:	000005da 	ldrdeq	r0, [r0], -sl
     cf0:	02500119 	subseq	r0, r0, #1073741830	; 0x40000006
     cf4:	18000074 	stmdane	r0, {r2, r4, r5, r6}
     cf8:	f0000824 			; <UNDEFINED> instruction: 0xf0000824
     cfc:	00000abc 			; <UNDEFINED> instruction: 0x00000abc
     d00:	000005f1 	strdeq	r0, [r0], -r1
     d04:	05500119 	ldrbeq	r0, [r0, #-281]	; 0x119
     d08:	0018a403 	andseq	sl, r8, r3, lsl #8
     d0c:	2c1a00f0 	ldccs	0, cr0, [sl], {240}	; 0xf0
     d10:	ddf00008 	ldclle	0, cr0, [r0, #32]!
     d14:	1b00000a 	blne	d44 <PHYS_OFFSET-0x7ffff2bc>
     d18:	f0000838 			; <UNDEFINED> instruction: 0xf0000838
     d1c:	000abc01 	andeq	fp, sl, r1, lsl #24
     d20:	50011900 	andpl	r1, r1, r0, lsl #18
     d24:	00007402 	andeq	r7, r0, r2, lsl #8
     d28:	04591e00 	ldrbeq	r1, [r9], #-3584	; 0xe00
     d2c:	08380000 	ldmdaeq	r8!, {}	; <UNPREDICTABLE>
     d30:	083cf000 	ldmdaeq	ip!, {ip, sp, lr, pc}
     d34:	7d02f000 	stcvc	0, cr15, [r2, #-0]
     d38:	011f0100 	tsteq	pc, r0, lsl #2
     d3c:	00000197 	muleq	r0, r7, r1
     d40:	70013701 	andvc	r3, r1, r1, lsl #14
     d44:	3c000000 	stccc	0, cr0, [r0], {-0}
     d48:	48f00008 	ldmmi	r0!, {r3}^
     d4c:	26f00008 	ldrbtcs	r0, [r0], r8
     d50:	01000006 	tsteq	r0, r6
     d54:	0000065c 	andeq	r0, r0, ip, asr r6
     d58:	00027614 	andeq	r7, r2, r4, lsl r6
     d5c:	02370100 	eorseq	r0, r7, #0
     d60:	46000005 	strmi	r0, [r0], -r5
     d64:	20000006 	andcs	r0, r0, r6
     d68:	f0000844 			; <UNDEFINED> instruction: 0xf0000844
     d6c:	00000515 	andeq	r0, r0, r5, lsl r5
     d70:	03500119 	cmpeq	r0, #1073741830	; 0x40000006
     d74:	005001f3 	ldrsheq	r0, [r0], #-19	; 0xffffffed
     d78:	40011f00 	andmi	r1, r1, r0, lsl #30
     d7c:	01000003 	tsteq	r0, r3
     d80:	03aa0140 			; <UNDEFINED> instruction: 0x03aa0140
     d84:	08480000 	stmdaeq	r8, {}^	; <UNPREDICTABLE>
     d88:	0958f000 	ldmdbeq	r8, {ip, sp, lr, pc}^
     d8c:	0667f000 	strbteq	pc, [r7], -r0	; <UNPREDICTABLE>
     d90:	64010000 	strvs	r0, [r1], #-0
     d94:	14000008 	strne	r0, [r0], #-8
     d98:	00000276 	andeq	r0, r0, r6, ror r2
     d9c:	05024001 	streq	r4, [r2, #-1]
     da0:	06870000 	streq	r0, [r7], r0
     da4:	68210000 	stmdavs	r1!, {}	; <UNPREDICTABLE>
     da8:	01007273 	tsteq	r0, r3, ror r2
     dac:	00003042 	andeq	r3, r0, r2, asr #32
     db0:	21560100 	cmpcs	r6, r0, lsl #2
     db4:	00737369 	rsbseq	r7, r3, r9, ror #6
     db8:	00304301 	eorseq	r4, r0, r1, lsl #6
     dbc:	55010000 	strpl	r0, [r1, #-0]
     dc0:	00636521 	rsbeq	r6, r3, r1, lsr #10
     dc4:	00304401 	eorseq	r4, r0, r1, lsl #8
     dc8:	57010000 	strpl	r0, [r1, -r0]
     dcc:	00085022 	andeq	r5, r8, r2, lsr #32
     dd0:	000854f0 	strdeq	r5, [r8], -r0
     dd4:	0006caf0 	strdeq	ip, [r6], -r0
     dd8:	009a2300 	addseq	r2, sl, r0, lsl #6
     ddc:	42010000 	andmi	r0, r1, #0
     de0:	00000025 	andeq	r0, r0, r5, lsr #32
     de4:	18005601 	stmdane	r0, {r0, r9, sl, ip, lr}
     de8:	f0000864 			; <UNDEFINED> instruction: 0xf0000864
     dec:	00000abc 			; <UNDEFINED> instruction: 0x00000abc
     df0:	000006e1 	andeq	r0, r0, r1, ror #13
     df4:	05500119 	ldrbeq	r0, [r0, #-281]	; 0x119
     df8:	00156c03 	andseq	r6, r5, r3, lsl #24
     dfc:	941800f0 	ldrls	r0, [r8], #-240	; 0xf0
     e00:	bcf00008 	ldcllt	0, cr0, [r0], #32
     e04:	f800000a 			; <UNDEFINED> instruction: 0xf800000a
     e08:	19000006 	stmdbne	r0, {r1, r2}
     e0c:	03055001 	movweq	r5, #20481	; 0x5001
     e10:	f00015e0 			; <UNDEFINED> instruction: 0xf00015e0
     e14:	089c1800 	ldmeq	ip, {fp, ip}
     e18:	0addf000 	beq	ff77ce20 <STACKTOP+0x77ce20>
     e1c:	070c0000 	streq	r0, [ip, -r0]
     e20:	01190000 	tsteq	r9, r0
     e24:	00750250 	rsbseq	r0, r5, r0, asr r2
     e28:	08a41800 	stmiaeq	r4!, {fp, ip}
     e2c:	0abcf000 	beq	fef3ce34 <_hmm_pgtable+0xef36e34>
     e30:	07230000 	streq	r0, [r3, -r0]!
     e34:	01190000 	tsteq	r9, r0
     e38:	fc030550 	stc2	5, cr0, [r3], {80}	; 0x50
     e3c:	00f00014 	rscseq	r0, r0, r4, lsl r0
     e40:	0008ac18 	andeq	sl, r8, r8, lsl ip
     e44:	000abcf0 	strdeq	fp, [sl], -r0
     e48:	00073a00 	andeq	r3, r7, r0, lsl #20
     e4c:	50011900 	andpl	r1, r1, r0, lsl #18
     e50:	16080305 	strne	r0, [r8], -r5, lsl #6
     e54:	1800f000 	stmdane	r0, {ip, sp, lr, pc}
     e58:	f00008b4 			; <UNDEFINED> instruction: 0xf00008b4
     e5c:	00000add 	ldrdeq	r0, [r0], -sp
     e60:	0000074e 	andeq	r0, r0, lr, asr #14
     e64:	02500119 	subseq	r0, r0, #1073741830	; 0x40000006
     e68:	18000077 	stmdane	r0, {r0, r1, r2, r4, r5, r6}
     e6c:	f00008bc 			; <UNDEFINED> instruction: 0xf00008bc
     e70:	00000abc 			; <UNDEFINED> instruction: 0x00000abc
     e74:	00000765 	andeq	r0, r0, r5, ror #14
     e78:	05500119 	ldrbeq	r0, [r0, #-281]	; 0x119
     e7c:	0014fc03 	andseq	pc, r4, r3, lsl #24
     e80:	c41800f0 	ldrgt	r0, [r8], #-240	; 0xf0
     e84:	bcf00008 	ldcllt	0, cr0, [r0], #32
     e88:	7c00000a 	stcvc	0, cr0, [r0], {10}
     e8c:	19000007 	stmdbne	r0, {r0, r1, r2}
     e90:	03055001 	movweq	r5, #20481	; 0x5001
     e94:	f0001618 			; <UNDEFINED> instruction: 0xf0001618
     e98:	08cc1800 	stmiaeq	ip, {fp, ip}^
     e9c:	0addf000 	beq	ff77cea4 <STACKTOP+0x77cea4>
     ea0:	07900000 	ldreq	r0, [r0, r0]
     ea4:	01190000 	tsteq	r9, r0
     ea8:	00760250 	rsbseq	r0, r6, r0, asr r2
     eac:	08d41800 	ldmeq	r4, {fp, ip}^
     eb0:	0abcf000 	beq	fef3ceb8 <_hmm_pgtable+0xef36eb8>
     eb4:	07a70000 	streq	r0, [r7, r0]!
     eb8:	01190000 	tsteq	r9, r0
     ebc:	fc030550 	stc2	5, cr0, [r3], {80}	; 0x50
     ec0:	00f00014 	rscseq	r0, r0, r4, lsl r0
     ec4:	0008dc18 	andeq	sp, r8, r8, lsl ip
     ec8:	000515f0 	strdeq	r1, [r5], -r0
     ecc:	0007bb00 	andeq	fp, r7, r0, lsl #22
     ed0:	50011900 	andpl	r1, r1, r0, lsl #18
     ed4:	00007402 	andeq	r7, r0, r2, lsl #8
     ed8:	0008e818 	andeq	lr, r8, r8, lsl r8
     edc:	000abcf0 	strdeq	fp, [sl], -r0
     ee0:	0007d200 	andeq	sp, r7, r0, lsl #4
     ee4:	50011900 	andpl	r1, r1, r0, lsl #18
     ee8:	15a00305 	strne	r0, [r0, #773]!	; 0x305
     eec:	1800f000 	stmdane	r0, {ip, sp, lr, pc}
     ef0:	f00008f0 			; <UNDEFINED> instruction: 0xf00008f0
     ef4:	00000515 	andeq	r0, r0, r5, lsl r5
     ef8:	000007e6 	andeq	r0, r0, r6, ror #15
     efc:	02500119 	subseq	r0, r0, #1073741830	; 0x40000006
     f00:	18000074 	stmdane	r0, {r2, r4, r5, r6}
     f04:	f00008f8 			; <UNDEFINED> instruction: 0xf00008f8
     f08:	00000abc 			; <UNDEFINED> instruction: 0x00000abc
     f0c:	000007fd 	strdeq	r0, [r0], -sp
     f10:	05500119 	ldrbeq	r0, [r0, #-281]	; 0x119
     f14:	00162403 	andseq	r2, r6, r3, lsl #8
     f18:	081800f0 	ldmdaeq	r8, {r4, r5, r6, r7}
     f1c:	bcf00009 	ldcllt	0, cr0, [r0], #36	; 0x24
     f20:	1400000a 	strne	r0, [r0], #-10
     f24:	19000008 	stmdbne	r0, {r3}
     f28:	03055001 	movweq	r5, #20481	; 0x5001
     f2c:	f00015c0 			; <UNDEFINED> instruction: 0xf00015c0
     f30:	09101800 	ldmdbeq	r0, {fp, ip}
     f34:	0515f000 	ldreq	pc, [r5, #-0]
     f38:	08280000 	stmdaeq	r8!, {}	; <UNPREDICTABLE>
     f3c:	01190000 	tsteq	r9, r0
     f40:	00740250 	rsbseq	r0, r4, r0, asr r2
     f44:	09181800 	ldmdbeq	r8, {fp, ip}
     f48:	0463f000 	strbteq	pc, [r3], #-0	; <UNPREDICTABLE>
     f4c:	083c0000 	ldmdaeq	ip!, {}	; <UNPREDICTABLE>
     f50:	01190000 	tsteq	r9, r0
     f54:	00740250 	rsbseq	r0, r4, r0, asr r2
     f58:	09241800 	stmdbeq	r4!, {fp, ip}
     f5c:	0abcf000 	beq	fef3cf64 <_hmm_pgtable+0xef36f64>
     f60:	08530000 	ldmdaeq	r3, {}^	; <UNPREDICTABLE>
     f64:	01190000 	tsteq	r9, r0
     f68:	8c030550 	cfstr32hi	mvfx0, [r3], {80}	; 0x50
     f6c:	00f00015 	rscseq	r0, r0, r5, lsl r0
     f70:	00092c20 	andeq	r2, r9, r0, lsr #24
     f74:	000515f0 	strdeq	r1, [r5], -r0
     f78:	50011900 	andpl	r1, r1, r0, lsl #18
     f7c:	00007402 	andeq	r7, r0, r2, lsl #8
     f80:	e0011d00 	and	r1, r1, r0, lsl #26
     f84:	01000002 	tsteq	r0, r2
     f88:	09580168 	ldmdbeq	r8, {r3, r5, r6, r8}^
     f8c:	09ccf000 	stmibeq	ip, {ip, sp, lr, pc}^
     f90:	06a5f000 	strteq	pc, [r5], r0
     f94:	ef010000 	svc	0x00010000
     f98:	15000008 	strne	r0, [r0, #-8]
     f9c:	000003e3 	andeq	r0, r0, r3, ror #7
     fa0:	05086a01 	streq	r6, [r8, #-2561]	; 0xa01
     fa4:	06c50000 	strbeq	r0, [r5], r0
     fa8:	76150000 	ldrvc	r0, [r5], -r0
     fac:	01000002 	tsteq	r0, r2
     fb0:	0005026b 	andeq	r0, r5, fp, ror #4
     fb4:	0006ed00 	andeq	lr, r6, r0, lsl #26
     fb8:	09741800 	ldmdbeq	r4!, {fp, ip}^
     fbc:	0abcf000 	beq	fef3cfc4 <_hmm_pgtable+0xef36fc4>
     fc0:	08b30000 	ldmeq	r3!, {}	; <UNPREDICTABLE>
     fc4:	01190000 	tsteq	r9, r0
     fc8:	44030550 	strmi	r0, [r3], #-1360	; 0x550
     fcc:	00f00016 	rscseq	r0, r0, r6, lsl r0
     fd0:	00099018 	andeq	r9, r9, r8, lsl r0
     fd4:	000af1f0 	strdeq	pc, [sl], -r0
     fd8:	0008c700 	andeq	ip, r8, r0, lsl #14
     fdc:	50011900 	andpl	r1, r1, r0, lsl #18
     fe0:	00007502 	andeq	r7, r0, r2, lsl #10
     fe4:	0009b418 	andeq	fp, r9, r8, lsl r4
     fe8:	000af1f0 	strdeq	pc, [sl], -r0
     fec:	0008da00 	andeq	sp, r8, r0, lsl #20
     ff0:	50011900 	andpl	r1, r1, r0, lsl #18
     ff4:	1b003101 	blne	d400 <PHYS_OFFSET-0x7fff2c00>
     ff8:	f00009cc 			; <UNDEFINED> instruction: 0xf00009cc
     ffc:	000abc01 	andeq	fp, sl, r1, lsl #24
    1000:	50011900 	andpl	r1, r1, r0, lsl #18
    1004:	16600305 	strbtne	r0, [r0], -r5, lsl #6
    1008:	0000f000 	andeq	pc, r0, r0
    100c:	0319011d 	tsteq	r9, #1073741831	; 0x40000007
    1010:	b9010000 	stmdblt	r1, {}	; <UNPREDICTABLE>
    1014:	0009cc01 	andeq	ip, r9, r1, lsl #24
    1018:	0009fcf0 	strdeq	pc, [r9], -r0
    101c:	000721f0 	strdeq	r2, [r7], -r0
    1020:	09670100 	stmdbeq	r7!, {r8}^
    1024:	e3150000 	tst	r5, #0
    1028:	01000003 	tsteq	r0, r3
    102c:	000508bb 			; <UNDEFINED> instruction: 0x000508bb
    1030:	00074100 	andeq	r4, r7, r0, lsl #2
    1034:	02761500 	rsbseq	r1, r6, #0
    1038:	bc010000 	stclt	0, cr0, [r1], {-0}
    103c:	00000502 	andeq	r0, r0, r2, lsl #10
    1040:	00000741 	andeq	r0, r0, r1, asr #14
    1044:	0009e018 	andeq	lr, r9, r8, lsl r0
    1048:	000abcf0 	strdeq	fp, [sl], -r0
    104c:	00093e00 	andeq	r3, r9, r0, lsl #28
    1050:	50011900 	andpl	r1, r1, r0, lsl #18
    1054:	167c0305 	ldrbtne	r0, [ip], -r5, lsl #6
    1058:	1800f000 	stmdane	r0, {ip, sp, lr, pc}
    105c:	f00009f0 			; <UNDEFINED> instruction: 0xf00009f0
    1060:	00000515 	andeq	r0, r0, r5, lsl r5
    1064:	00000955 	andeq	r0, r0, r5, asr r9
    1068:	05500119 	ldrbeq	r0, [r0, #-281]	; 0x119
    106c:	00200403 	eoreq	r0, r0, r3, lsl #8
    1070:	fc1b00f0 	ldc2	0, cr0, [fp], {240}	; 0xf0
    1074:	01f00009 	mvnseq	r0, r9
    1078:	00000463 	andeq	r0, r0, r3, ror #8
    107c:	02500119 	subseq	r0, r0, #1073741830	; 0x40000006
    1080:	00000074 	andeq	r0, r0, r4, ror r0
    1084:	016e011d 	cmneq	lr, sp, lsl r1
    1088:	cc010000 	stcgt	0, cr0, [r1], {-0}
    108c:	0009fc01 	andeq	pc, r9, r1, lsl #24
    1090:	000a14f0 	strdeq	r1, [sl], -r0
    1094:	000765f0 	strdeq	r6, [r7], -r0
    1098:	09a30100 	stmibeq	r3!, {r8}
    109c:	0c180000 	ldceq	0, cr0, [r8], {-0}
    10a0:	bcf0000a 	ldcllt	0, cr0, [r0], #40	; 0x28
    10a4:	9800000a 	stmdals	r0, {r1, r3}
    10a8:	19000009 	stmdbne	r0, {r0, r3}
    10ac:	03055001 	movweq	r5, #20481	; 0x5001
    10b0:	f00016a0 			; <UNDEFINED> instruction: 0xf00016a0
    10b4:	0a142400 	beq	50a0bc <PHYS_OFFSET-0x7faf5f44>
    10b8:	ef01f000 	svc	0x0001f000
    10bc:	00000008 	andeq	r0, r0, r8
    10c0:	0184011d 	orreq	r0, r4, sp, lsl r1
    10c4:	d2010000 	andle	r0, r1, #0
    10c8:	000a1401 	andeq	r1, sl, r1, lsl #8
    10cc:	000a5cf0 	strdeq	r5, [sl], -r0
    10d0:	000785f0 	strdeq	r8, [r7], -r0
    10d4:	0a450100 	beq	11414dc <PHYS_OFFSET-0x7eebeb24>
    10d8:	72160000 	andsvc	r0, r6, #0
    10dc:	01007465 	tsteq	r0, r5, ror #8
    10e0:	000070d4 	ldrdeq	r7, [r0], -r4
    10e4:	0007a500 	andeq	sl, r7, r0, lsl #10
    10e8:	57012500 	strpl	r2, [r1, -r0, lsl #10]
    10ec:	01000002 	tsteq	r0, r2
    10f0:	00050edb 	ldrdeq	r0, [r5], -fp
    10f4:	09df0100 	ldmibeq	pc, {r8}^	; <UNPREDICTABLE>
    10f8:	00260000 	eoreq	r0, r6, r0
    10fc:	000a2018 	andeq	r2, sl, r8, lsl r0
    1100:	000abcf0 	strdeq	fp, [sl], -r0
    1104:	0009f600 	andeq	pc, r9, r0, lsl #12
    1108:	50011900 	andpl	r1, r1, r0, lsl #18
    110c:	16d00305 	ldrbne	r0, [r0], r5, lsl #6
    1110:	1a00f000 	bne	3d118 <PHYS_OFFSET-0x7ffc2ee8>
    1114:	f0000a24 			; <UNDEFINED> instruction: 0xf0000a24
    1118:	00000b09 	andeq	r0, r0, r9, lsl #22
    111c:	000a281a 	andeq	r2, sl, sl, lsl r8
    1120:	000b17f0 	strdeq	r1, [fp], -r0
    1124:	0a341a00 	beq	d0792c <PHYS_OFFSET-0x7f2f86d4>
    1128:	0864f000 	stmdaeq	r4!, {ip, sp, lr, pc}^
    112c:	381a0000 	ldmdacc	sl, {}	; <UNPREDICTABLE>
    1130:	67f0000a 	ldrbvs	r0, [r0, sl]!
    1134:	18000009 	stmdane	r0, {r0, r3}
    1138:	f0000a40 			; <UNDEFINED> instruction: 0xf0000a40
    113c:	00000abc 			; <UNDEFINED> instruction: 0x00000abc
    1140:	00000a31 	andeq	r0, r0, r1, lsr sl
    1144:	05500119 	ldrbeq	r0, [r0, #-281]	; 0x119
    1148:	00171c03 	andseq	r1, r7, r3, lsl #24
    114c:	4c2000f0 	stcmi	0, cr0, [r0], #-960	; 0xfffffc40
    1150:	bcf0000a 	ldcllt	0, cr0, [r0], #40	; 0x28
    1154:	1900000a 	stmdbne	r0, {r1, r3}
    1158:	03055001 	movweq	r5, #20481	; 0x5001
    115c:	f00016ec 			; <UNDEFINED> instruction: 0xf00016ec
    1160:	1c0f0000 	stcne	0, cr0, [pc], {-0}
    1164:	55000004 	strpl	r0, [r0, #-4]
    1168:	1000000a 	andne	r0, r0, sl
    116c:	00000415 	andeq	r0, r0, r5, lsl r4
    1170:	51230001 	teqpl	r3, r1
    1174:	01000003 	tsteq	r0, r3
    1178:	000a4521 	andeq	r4, sl, r1, lsr #10
    117c:	04030500 	streq	r0, [r3], #-1280	; 0x500
    1180:	23f00020 	mvnscs	r0, #32
    1184:	000002d2 	ldrdeq	r0, [r0], -r2
    1188:	050e2201 	streq	r2, [lr, #-513]	; 0x201
    118c:	03050000 	movweq	r0, #20480	; 0x5000
    1190:	f0002000 			; <UNDEFINED> instruction: 0xf0002000
    1194:	01f80127 	mvnseq	r0, r7, lsr #2
    1198:	0d050000 	stceq	0, cr0, [r5, #-0]
    119c:	0a8b0101 	beq	fe2c15a8 <_hmm_pgtable+0xe2bb5a8>
    11a0:	0e280000 	cdpeq	0, 2, cr0, cr8, cr0, {0}
    11a4:	00000005 	andeq	r0, r0, r5
    11a8:	02320129 	eorseq	r0, r2, #1073741834	; 0x4000000a
    11ac:	0e050000 	cdpeq	0, 0, cr0, cr5, cr0, {0}
    11b0:	00007001 	andeq	r7, r0, r1
    11b4:	0aa80100 	beq	fea015bc <_hmm_pgtable+0xe9fb5bc>
    11b8:	8a280000 	bhi	a011c0 <PHYS_OFFSET-0x7f5fee40>
    11bc:	28000003 	stmdacs	r0, {r0, r1}
    11c0:	00000453 	andeq	r0, r0, r3, asr r4
    11c4:	cd012700 	stcgt	7, cr2, [r1, #-0]
    11c8:	01000003 	tsteq	r0, r3
    11cc:	bc01011e 	stflts	f0, [r1], {30}
    11d0:	2800000a 	stmdacs	r0, {r1, r3}
    11d4:	00000502 	andeq	r0, r0, r2, lsl #10
    11d8:	73012700 	movwvc	r2, #5888	; 0x1700
    11dc:	06000000 	streq	r0, [r0], -r0
    11e0:	d0010106 	andle	r0, r1, r6, lsl #2
    11e4:	2800000a 	stmdacs	r0, {r1, r3}
    11e8:	00000ad0 	ldrdeq	r0, [r0], -r0	; <UNPREDICTABLE>
    11ec:	d6041100 	strle	r1, [r4], -r0, lsl #2
    11f0:	0300000a 	movweq	r0, #10
    11f4:	00660801 	rsbeq	r0, r6, r1, lsl #16
    11f8:	01270000 	teqeq	r7, r0
    11fc:	00000035 	andeq	r0, r0, r5, lsr r0
    1200:	01010706 	tsteq	r1, r6, lsl #14
    1204:	00000af1 	strdeq	r0, [r0], -r1
    1208:	00003028 	andeq	r3, r0, r8, lsr #32
    120c:	01290000 	teqeq	r9, r0
    1210:	000001a8 	andeq	r0, r0, r8, lsr #3
    1214:	53010c05 	movwpl	r0, #7173	; 0x1c05
    1218:	01000004 	tsteq	r0, r4
    121c:	00000b09 	andeq	r0, r0, r9, lsl #22
    1220:	00038a28 	andeq	r8, r3, r8, lsr #20
    1224:	012a0000 	teqeq	sl, r0
    1228:	00000305 	andeq	r0, r0, r5, lsl #6
    122c:	0e011105 	adfeqs	f1, f1, f5
    1230:	01000005 	tsteq	r0, r5
    1234:	0257012b 	subseq	r0, r7, #-1073741814	; 0xc000000a
    1238:	db010000 	blle	41240 <PHYS_OFFSET-0x7ffbedc0>
    123c:	0000050e 	andeq	r0, r0, lr, lsl #10
    1240:	00002601 	andeq	r2, r0, r1, lsl #12
    1244:	0000009e 	muleq	r0, lr, r0
    1248:	04f90002 	ldrbteq	r0, [r9], #2
    124c:	01040000 	mrseq	r0, (UNDEF: 4)
    1250:	0000000a 	andeq	r0, r0, sl
    1254:	0003f001 	andeq	pc, r3, r1
    1258:	00009f00 	andeq	r9, r0, r0, lsl #30
    125c:	000a5c00 	andeq	r5, sl, r0, lsl #24
    1260:	000a74f0 	strdeq	r7, [sl], -r0
    1264:	00041af0 	strdeq	r1, [r4], -r0
    1268:	07040200 	streq	r0, [r4, -r0, lsl #4]
    126c:	00000050 	andeq	r0, r0, r0, asr r0
    1270:	46070802 	strmi	r0, [r7], -r2, lsl #16
    1274:	02000000 	andeq	r0, r0, #0
    1278:	005d0801 	subseq	r0, sp, r1, lsl #16
    127c:	01030000 	mrseq	r0, (UNDEF: 3)
    1280:	00000400 	andeq	r0, r0, r0, lsl #8
    1284:	5c010401 	cfstrspl	mvf0, [r1], {1}
    1288:	74f0000a 	ldrbtvc	r0, [r0], #10
    128c:	d0f0000a 	rscsle	r0, r0, sl
    1290:	01000007 	tsteq	r0, r7
    1294:	00000076 	andeq	r0, r0, r6, ror r0
    1298:	000a6c04 	andeq	r6, sl, r4, lsl #24
    129c:	000076f0 	strdeq	r7, [r0], -r0
    12a0:	00006b00 	andeq	r6, r0, r0, lsl #22
    12a4:	50010500 	andpl	r0, r1, r0, lsl #10
    12a8:	174c0305 	strbne	r0, [ip, -r5, lsl #6]
    12ac:	0600f000 	streq	pc, [r0], -r0
    12b0:	f0000a74 			; <UNDEFINED> instruction: 0xf0000a74
    12b4:	00009701 	andeq	r9, r0, r1, lsl #14
    12b8:	01070000 	mrseq	r0, (UNDEF: 7)
    12bc:	00000073 	andeq	r0, r0, r3, ror r0
    12c0:	01010602 	tsteq	r1, r2, lsl #12
    12c4:	0000008a 	andeq	r0, r0, sl, lsl #1
    12c8:	00008a08 	andeq	r8, r0, r8, lsl #20
    12cc:	04090000 	streq	r0, [r9], #-0
    12d0:	00000090 	muleq	r0, r0, r0
    12d4:	66080102 	strvs	r0, [r8], -r2, lsl #2
    12d8:	0a000000 	beq	12e0 <PHYS_OFFSET-0x7fffed20>
    12dc:	0003fe01 	andeq	pc, r3, r1, lsl #28
    12e0:	01040300 	mrseq	r0, LR_abt
    12e4:	01d90001 	bicseq	r0, r9, r1
    12e8:	00020000 	andeq	r0, r2, r0
    12ec:	0000058d 	andeq	r0, r0, sp, lsl #11
    12f0:	000a0104 	andeq	r0, sl, r4, lsl #2
    12f4:	25010000 	strcs	r0, [r1, #-0]
    12f8:	9f000004 	svcls	0x00000004
    12fc:	74000000 	strvc	r0, [r0], #-0
    1300:	24f0000a 	ldrbtcs	r0, [r0], #10
    1304:	7ff0000b 	svcvc	0x00f0000b
    1308:	02000004 	andeq	r0, r0, #4
    130c:	00460708 	subeq	r0, r6, r8, lsl #14
    1310:	95030000 	strls	r0, [r3, #-0]
    1314:	02000003 	andeq	r0, r0, #3
    1318:	00003704 	andeq	r3, r0, r4, lsl #14
    131c:	07040200 	streq	r0, [r4, -r0, lsl #4]
    1320:	00000050 	andeq	r0, r0, r0, asr r0
    1324:	00038c03 	andeq	r8, r3, r3, lsl #24
    1328:	25050200 	strcs	r0, [r5, #-512]	; 0x200
    132c:	02000000 	andeq	r0, r0, #0
    1330:	005d0801 	subseq	r0, sp, r1, lsl #16
    1334:	01040000 	mrseq	r0, (UNDEF: 4)
    1338:	00000073 	andeq	r0, r0, r3, ror r0
    133c:	01010b01 	tsteq	r1, r1, lsl #22
    1340:	00000075 	andeq	r0, r0, r5, ror r0
    1344:	72747305 	rsbsvc	r7, r4, #335544320	; 0x14000000
    1348:	750b0100 	strvc	r0, [fp, #-256]	; 0x100
    134c:	06000000 	streq	r0, [r0], -r0
    1350:	0000041f 	andeq	r0, r0, pc, lsl r4
    1354:	00820d01 	addeq	r0, r2, r1, lsl #26
    1358:	07000000 	streq	r0, [r0, -r0]
    135c:	00007b04 	andeq	r7, r0, r4, lsl #22
    1360:	08010200 	stmdaeq	r1, {r9}
    1364:	00000066 	andeq	r0, r0, r6, rrx
    1368:	00880407 	addeq	r0, r8, r7, lsl #8
    136c:	7b080000 	blvc	201374 <PHYS_OFFSET-0x7fdfec8c>
    1370:	04000000 	streq	r0, [r0], #-0
    1374:	00043201 	andeq	r3, r4, r1, lsl #4
    1378:	01130100 	tsteq	r3, r0, lsl #2
    137c:	0000b001 	andeq	fp, r0, r1
    1380:	00630500 	rsbeq	r0, r3, r0, lsl #10
    1384:	007b1301 	rsbseq	r1, fp, r1, lsl #6
    1388:	1f060000 	svcne	0x00060000
    138c:	01000004 	tsteq	r0, r4
    1390:	00008215 	andeq	r8, r0, r5, lsl r2
    1394:	50090000 	andpl	r0, r9, r0
    1398:	74000000 	strvc	r0, [r0], #-0
    139c:	9cf0000a 	ldclls	0, cr0, [r0], #40	; 0x28
    13a0:	02f0000a 	rscseq	r0, r0, #10
    13a4:	d801007d 	stmdale	r1, {r0, r2, r3, r4, r5, r6}
    13a8:	0a000000 	beq	13b0 <PHYS_OFFSET-0x7fffec50>
    13ac:	0000005e 	andeq	r0, r0, lr, asr r0
    13b0:	000007f0 	strdeq	r0, [r0], -r0	; <UNPREDICTABLE>
    13b4:	0000690b 	andeq	r6, r0, fp, lsl #18
    13b8:	09000000 	stmdbeq	r0, {}	; <UNPREDICTABLE>
    13bc:	8d09001c 	stchi	0, cr0, [r9, #-112]	; 0xffffff90
    13c0:	9c000000 	stcls	0, cr0, [r0], {-0}
    13c4:	acf0000a 	ldclge	0, cr0, [r0], #40	; 0x28
    13c8:	02f0000a 	rscseq	r0, r0, #10
    13cc:	fe01007d 	mcr2	0, 0, r0, cr1, cr13, {3}
    13d0:	0c000000 	stceq	0, cr0, [r0], {-0}
    13d4:	0000009b 	muleq	r0, fp, r0
    13d8:	a40b5001 	strge	r5, [fp], #-1
    13dc:	00000000 	andeq	r0, r0, r0
    13e0:	001c0900 	andseq	r0, ip, r0, lsl #18
    13e4:	0035010d 	eorseq	r0, r5, sp, lsl #2
    13e8:	19010000 	stmdbne	r1, {}	; <UNPREDICTABLE>
    13ec:	000aac01 	andeq	sl, sl, r1, lsl #24
    13f0:	000b08f0 	strdeq	r0, [fp], -r0	; <UNPREDICTABLE>
    13f4:	007d02f0 	ldrshteq	r0, [sp], #-32	; 0xffffffe0
    13f8:	00019701 	andeq	r9, r1, r1, lsl #14
    13fc:	00760e00 	rsbseq	r0, r6, r0, lsl #28
    1400:	00371901 	eorseq	r1, r7, r1, lsl #18
    1404:	50010000 	andpl	r0, r1, r0
    1408:	00043c0f 	andeq	r3, r4, pc, lsl #24
    140c:	371b0100 	ldrcc	r0, [fp, -r0, lsl #2]
    1410:	0f000000 	svceq	0x00000000
    1414:	01006310 	tsteq	r0, r0, lsl r3
    1418:	0000371c 	andeq	r3, r0, ip, lsl r7
    141c:	00080300 	andeq	r0, r8, r0, lsl #6
    1420:	00691100 	rsbeq	r1, r9, r0, lsl #2
    1424:	01971d01 	orrseq	r1, r7, r1, lsl #26
    1428:	50120000 	andspl	r0, r2, r0
    142c:	b0000000 	andlt	r0, r0, r0
    1430:	00f0000a 	rscseq	r0, r0, sl
    1434:	01000000 	mrseq	r0, (UNDEF: 0)
    1438:	0001701e 	andeq	r7, r1, lr, lsl r0
    143c:	005e0a00 	subseq	r0, lr, r0, lsl #20
    1440:	08410000 	stmdaeq	r1, {}^	; <UNPREDICTABLE>
    1444:	20130000 	andscs	r0, r3, r0
    1448:	0b000000 	bleq	1450 <PHYS_OFFSET-0x7fffebb0>
    144c:	00000069 	andeq	r0, r0, r9, rrx
    1450:	1c090000 	stcne	0, cr0, [r9], {-0}
    1454:	8d140000 	ldchi	0, cr0, [r4, #-0]
    1458:	cc000000 	stcgt	0, cr0, [r0], {-0}
    145c:	40f0000a 	rscsmi	r0, r0, sl
    1460:	01000000 	mrseq	r0, (UNDEF: 0)
    1464:	009b0c27 	addseq	r0, fp, r7, lsr #24
    1468:	51010000 	mrspl	r0, (UNDEF: 1)
    146c:	00006013 	andeq	r6, r0, r3, lsl r0
    1470:	00a40b00 	adceq	r0, r4, r0, lsl #22
    1474:	00000000 	andeq	r0, r0, r0
    1478:	00001c09 	andeq	r1, r0, r9, lsl #24
    147c:	05041500 	streq	r1, [r4, #-1280]	; 0x500
    1480:	00746e69 	rsbseq	r6, r4, r9, ror #28
    1484:	040e0116 	streq	r0, [lr], #-278	; 0x116
    1488:	2b010000 	blcs	41490 <PHYS_OFFSET-0x7ffbeb70>
    148c:	000b0801 	andeq	r0, fp, r1, lsl #16
    1490:	000b24f0 	strdeq	r2, [fp], -r0
    1494:	000859f0 	strdeq	r5, [r8], -r0
    1498:	76170100 	ldrvc	r0, [r7], -r0, lsl #2
    149c:	3e2b0100 	sufcce	f0, f3, f0
    14a0:	79000000 	stmdbvc	r0, {}	; <UNPREDICTABLE>
    14a4:	18000008 	stmdane	r0, {r3}
    14a8:	f0000b18 			; <UNDEFINED> instruction: 0xf0000b18
    14ac:	000000fe 	strdeq	r0, [r0], -lr
    14b0:	000b2419 	andeq	r2, fp, r9, lsl r4
    14b4:	00fe01f0 	ldrshteq	r0, [lr], #16
    14b8:	011a0000 	tsteq	sl, r0
    14bc:	00740250 	rsbseq	r0, r4, r0, asr r2
    14c0:	ca000000 	bgt	14c8 <PHYS_OFFSET-0x7fffeb38>
    14c4:	02000012 	andeq	r0, r0, #18
    14c8:	0006f500 	andeq	pc, r6, r0, lsl #10
    14cc:	0a010400 	beq	424d4 <PHYS_OFFSET-0x7ffbdb2c>
    14d0:	01000000 	mrseq	r0, (UNDEF: 0)
    14d4:	0000049d 	muleq	r0, sp, r4
    14d8:	0000009f 	muleq	r0, pc, r0	; <UNPREDICTABLE>
    14dc:	f0000b24 			; <UNDEFINED> instruction: 0xf0000b24
    14e0:	f000137c 			; <UNDEFINED> instruction: 0xf000137c
    14e4:	000004f3 	strdeq	r0, [r0], -r3
    14e8:	46070802 	strmi	r0, [r7], -r2, lsl #16
    14ec:	03000000 	movweq	r0, #0
    14f0:	41040204 	tstmi	r4, r4, lsl #4
    14f4:	04000000 	streq	r0, [r0], #-0
    14f8:	0000021e 	andeq	r0, r0, lr, lsl r2
    14fc:	03720400 	cmneq	r2, #0
    1500:	007f0000 	rsbseq	r0, pc, r0
    1504:	0002c405 	andeq	ip, r2, r5, lsl #8
    1508:	2c070200 	sfmcs	f0, 4, [r7], {-0}
    150c:	05000000 	streq	r0, [r0, #-0]
    1510:	00000395 	muleq	r0, r5, r3
    1514:	00570403 	subseq	r0, r7, r3, lsl #8
    1518:	04020000 	streq	r0, [r2], #-0
    151c:	00005007 	andeq	r5, r0, r7
    1520:	038c0500 	orreq	r0, ip, #0
    1524:	05030000 	streq	r0, [r3, #-0]
    1528:	00000025 	andeq	r0, r0, r5, lsr #32
    152c:	0002ac05 	andeq	sl, r2, r5, lsl #24
    1530:	74060300 	strvc	r0, [r6], #-768	; 0x300
    1534:	02000000 	andeq	r0, r0, #0
    1538:	005d0801 	subseq	r0, sp, r1, lsl #16
    153c:	08060000 	stmdaeq	r6, {}	; <UNPREDICTABLE>
    1540:	01c00f04 	biceq	r0, r0, r4, lsl #30
    1544:	35070000 	strcc	r0, [r7, #-0]
    1548:	04000003 	streq	r0, [r0], #-3
    154c:	0001c011 	andeq	ip, r1, r1, lsl r0
    1550:	1f010400 	svcne	0x00010400
    1554:	07002302 	streq	r2, [r0, -r2, lsl #6]
    1558:	00000475 	andeq	r0, r0, r5, ror r4
    155c:	01c01204 	biceq	r1, r0, r4, lsl #4
    1560:	01040000 	mrseq	r0, (UNDEF: 4)
    1564:	0023021e 	eoreq	r0, r3, lr, lsl r2
    1568:	00696108 	rsbeq	r6, r9, r8, lsl #2
    156c:	01c01604 	biceq	r1, r0, r4, lsl #12
    1570:	03040000 	movweq	r0, #16384	; 0x4000
    1574:	0023021b 	eoreq	r0, r3, fp, lsl r2
    1578:	00736e08 	rsbseq	r6, r3, r8, lsl #28
    157c:	01c01704 	biceq	r1, r0, r4, lsl #14
    1580:	01040000 	mrseq	r0, (UNDEF: 4)
    1584:	0023021a 	eoreq	r0, r3, sl, lsl r2
    1588:	0001eb07 	andeq	lr, r1, r7, lsl #22
    158c:	c0180400 	andsgt	r0, r8, r0, lsl #8
    1590:	04000001 	streq	r0, [r0], #-1
    1594:	23021901 	movwcs	r1, #10497	; 0x2901
    1598:	6f720800 	svcvs	0x00720800
    159c:	c0190400 	andsgt	r0, r9, r0, lsl #8
    15a0:	04000001 	streq	r0, [r0], #-1
    15a4:	23021801 	movwcs	r1, #10241	; 0x2801
    15a8:	68730800 	ldmdavs	r3!, {fp}^
    15ac:	c01a0400 	andsgt	r0, sl, r0, lsl #8
    15b0:	04000001 	streq	r0, [r0], #-1
    15b4:	23021602 	movwcs	r1, #9730	; 0x2602
    15b8:	66610800 	strbtvs	r0, [r1], -r0, lsl #16
    15bc:	c01b0400 	andsgt	r0, fp, r0, lsl #8
    15c0:	04000001 	streq	r0, [r0], #-1
    15c4:	23021501 	movwcs	r1, #9473	; 0x2501
    15c8:	676e0800 	strbvs	r0, [lr, -r0, lsl #16]!
    15cc:	c01c0400 	andsgt	r0, ip, r0, lsl #8
    15d0:	04000001 	streq	r0, [r0], #-1
    15d4:	23021401 	movwcs	r1, #9217	; 0x2401
    15d8:	02520700 	subseq	r0, r2, #0
    15dc:	1f040000 	svcne	0x00040000
    15e0:	000001c0 	andeq	r0, r0, r0, asr #3
    15e4:	02001c04 	andeq	r1, r0, #1024	; 0x400
    15e8:	73080123 	movwvc	r0, #33059	; 0x8123
    15ec:	04007a62 	streq	r7, [r0], #-2658	; 0xa62
    15f0:	0001c020 	andeq	ip, r1, r0, lsr #32
    15f4:	0c0c0400 	cfstrseq	mvf0, [ip], {-0}
    15f8:	07042302 	streq	r2, [r4, -r2, lsl #6]
    15fc:	00000281 	andeq	r0, r0, r1, lsl #5
    1600:	01c02404 	biceq	r2, r0, r4, lsl #8
    1604:	01040000 	mrseq	r0, (UNDEF: 4)
    1608:	0423020b 	strteq	r0, [r3], #-523	; 0x20b
    160c:	6e787008 	cdpvs	0, 7, cr7, cr8, cr8, {0}
    1610:	c0250400 	eorgt	r0, r5, r0, lsl #8
    1614:	04000001 	streq	r0, [r0], #-1
    1618:	23020a01 	movwcs	r0, #10753	; 0x2a01
    161c:	6e780804 	cdpvs	8, 7, cr0, cr8, cr4, {0}
    1620:	c0260400 	eorgt	r0, r6, r0, lsl #8
    1624:	04000001 	streq	r0, [r0], #-1
    1628:	23020901 	movwcs	r0, #10497	; 0x2901
    162c:	028b0704 	addeq	r0, fp, #1048576	; 0x100000
    1630:	27040000 	strcs	r0, [r4, -r0]
    1634:	000001c0 	andeq	r0, r0, r0, asr #3
    1638:	02050404 	andeq	r0, r5, #67108864	; 0x4000000
    163c:	3b070423 	blcc	1c26d0 <PHYS_OFFSET-0x7fe3d930>
    1640:	04000003 	streq	r0, [r0], #-3
    1644:	0001c02b 	andeq	ip, r1, fp, lsr #32
    1648:	04010400 	streq	r0, [r1], #-1024	; 0x400
    164c:	08042302 	stmdaeq	r4, {r1, r8, r9, sp}
    1650:	00746e78 	rsbseq	r6, r4, r8, ror lr
    1654:	01c02c04 	biceq	r2, r0, r4, lsl #24
    1658:	01040000 	mrseq	r0, (UNDEF: 4)
    165c:	04230203 	strteq	r0, [r3], #-515	; 0x203
    1660:	74706108 	ldrbtvc	r6, [r0], #-264	; 0x108
    1664:	c02d0400 	eorgt	r0, sp, r0, lsl #8
    1668:	04000001 	streq	r0, [r0], #-1
    166c:	23020102 	movwcs	r0, #8450	; 0x2102
    1670:	736e0804 	cmnvc	lr, #262144	; 0x40000
    1674:	2e040074 	mcrcs	0, 0, r0, cr4, cr4, {3}
    1678:	000001c0 	andeq	r0, r0, r0, asr #3
    167c:	02000104 	andeq	r0, r0, #1
    1680:	02000423 	andeq	r0, r0, #587202560	; 0x23000000
    1684:	004b0704 	subeq	r0, fp, r4, lsl #14
    1688:	8d050000 	stchi	0, cr0, [r5, #-0]
    168c:	04000001 	streq	r0, [r0], #-1
    1690:	00007b2f 	andeq	r7, r0, pc, lsr #22
    1694:	04080600 	streq	r0, [r8], #-1536	; 0x600
    1698:	0002d733 	andeq	sp, r2, r3, lsr r7
    169c:	03350700 	teqeq	r5, #0
    16a0:	35040000 	strcc	r0, [r4, #-0]
    16a4:	000001c0 	andeq	r0, r0, r0, asr #3
    16a8:	021f0104 	andseq	r0, pc, #1
    16ac:	75070023 	strvc	r0, [r7, #-35]	; 0x23
    16b0:	04000004 	streq	r0, [r0], #-4
    16b4:	0001c036 	andeq	ip, r1, r6, lsr r0
    16b8:	1e010400 	cfcpysne	mvf0, mvf1
    16bc:	07002302 	streq	r2, [r0, -r2, lsl #6]
    16c0:	0000026b 	andeq	r0, r0, fp, ror #4
    16c4:	01c03a04 	biceq	r3, r0, r4, lsl #20
    16c8:	04040000 	streq	r0, [r4], #-0
    16cc:	0023021a 	eoreq	r0, r3, sl, lsl r2
    16d0:	0003eb07 	andeq	lr, r3, r7, lsl #22
    16d4:	c03b0400 	eorsgt	r0, fp, r0, lsl #8
    16d8:	04000001 	streq	r0, [r0], #-1
    16dc:	23021901 	movwcs	r1, #10497	; 0x2901
    16e0:	027b0700 	rsbseq	r0, fp, #0
    16e4:	3c040000 	stccc	0, cr0, [r4], {-0}
    16e8:	000001c0 	andeq	r0, r0, r0, asr #3
    16ec:	02180104 	andseq	r0, r8, #1
    16f0:	73080023 	movwvc	r0, #32803	; 0x8023
    16f4:	3d040068 	stccc	0, cr0, [r4, #-416]	; 0xfffffe60
    16f8:	000001c0 	andeq	r0, r0, r0, asr #3
    16fc:	02160204 	andseq	r0, r6, #1073741824	; 0x40000000
    1700:	61080023 	tstvs	r8, r3, lsr #32
    1704:	3e040066 	cdpcc	0, 0, cr0, cr4, cr6, {3}
    1708:	000001c0 	andeq	r0, r0, r0, asr #3
    170c:	02150104 	andseq	r0, r5, #1
    1710:	96070023 	strls	r0, [r7], -r3, lsr #32
    1714:	04000002 	streq	r0, [r0], #-2
    1718:	0001c03f 	andeq	ip, r1, pc, lsr r0
    171c:	14010400 	strne	r0, [r1], #-1024	; 0x400
    1720:	07002302 	streq	r2, [r0, -r2, lsl #6]
    1724:	00000252 	andeq	r0, r0, r2, asr r2
    1728:	01c04204 	biceq	r4, r0, r4, lsl #4
    172c:	1c040000 	stcne	0, cr0, [r4], {-0}
    1730:	01230200 	teqeq	r3, r0, lsl #4
    1734:	00029107 	andeq	r9, r2, r7, lsl #2
    1738:	c0430400 	subgt	r0, r3, r0, lsl #8
    173c:	04000001 	streq	r0, [r0], #-1
    1740:	23020c0c 	movwcs	r0, #11276	; 0x2c0c
    1744:	02810704 	addeq	r0, r1, #1048576	; 0x100000
    1748:	47040000 	strmi	r0, [r4, -r0]
    174c:	000001c0 	andeq	r0, r0, r0, asr #3
    1750:	020b0104 	andeq	r0, fp, #1
    1754:	4d070423 	cfstrsmi	mvf0, [r7, #-140]	; 0xffffff74
    1758:	04000002 	streq	r0, [r0], #-2
    175c:	0001c048 	andeq	ip, r1, r8, asr #32
    1760:	0a010400 	beq	42768 <PHYS_OFFSET-0x7ffbd898>
    1764:	08042302 	stmdaeq	r4, {r1, r8, r9, sp}
    1768:	04006e78 	streq	r6, [r0], #-3704	; 0xe78
    176c:	0001c049 	andeq	ip, r1, r9, asr #32
    1770:	09010400 	stmdbeq	r1, {sl}
    1774:	07042302 	streq	r2, [r4, -r2, lsl #6]
    1778:	0000028b 	andeq	r0, r0, fp, lsl #5
    177c:	01c04a04 	biceq	r4, r0, r4, lsl #20
    1780:	04040000 	streq	r0, [r4], #-0
    1784:	04230205 	strteq	r0, [r3], #-517	; 0x205
    1788:	00028607 	andeq	r8, r2, r7, lsl #12
    178c:	c04c0400 	subgt	r0, ip, r0, lsl #8
    1790:	04000001 	streq	r0, [r0], #-1
    1794:	23020005 	movwcs	r0, #8197	; 0x2005
    1798:	ba050004 	blt	1417b0 <PHYS_OFFSET-0x7febe850>
    179c:	04000001 	streq	r0, [r0], #-1
    17a0:	0001d24d 	andeq	sp, r1, sp, asr #4
    17a4:	04080600 	streq	r0, [r8], #-1536	; 0x600
    17a8:	00034054 	andeq	r4, r3, r4, asr r0
    17ac:	03350700 	teqeq	r5, #0
    17b0:	56040000 	strpl	r0, [r4], -r0
    17b4:	000001c0 	andeq	r0, r0, r0, asr #3
    17b8:	021f0104 	andseq	r0, pc, #1
    17bc:	75070023 	strvc	r0, [r7, #-35]	; 0x23
    17c0:	04000004 	streq	r0, [r0], #-4
    17c4:	0001c057 	andeq	ip, r1, r7, asr r0
    17c8:	1e010400 	cfcpysne	mvf0, mvf1
    17cc:	07002302 	streq	r2, [r0, -r2, lsl #6]
    17d0:	00000169 	andeq	r0, r0, r9, ror #2
    17d4:	01c05904 	biceq	r5, r0, r4, lsl #18
    17d8:	0a040000 	beq	1017e0 <PHYS_OFFSET-0x7fefe820>
    17dc:	00230214 	eoreq	r0, r3, r4, lsl r2
    17e0:	00025207 	andeq	r5, r2, r7, lsl #4
    17e4:	c05c0400 	subsgt	r0, ip, r0, lsl #8
    17e8:	04000001 	streq	r0, [r0], #-1
    17ec:	2302001c 	movwcs	r0, #8220	; 0x201c
    17f0:	01640701 	cmneq	r4, r1, lsl #14
    17f4:	5e040000 	cdppl	0, 0, cr0, cr4, cr0, {0}
    17f8:	000001c0 	andeq	r0, r0, r0, asr #3
    17fc:	02001804 	andeq	r1, r0, #262144	; 0x40000
    1800:	05000423 	streq	r0, [r0, #-1059]	; 0x423
    1804:	000002f0 	strdeq	r0, [r0], -r0	; <UNPREDICTABLE>
    1808:	02e25f04 	rsceq	r5, r2, #16
    180c:	08090000 	stmdaeq	r9, {}	; <UNPREDICTABLE>
    1810:	037f6104 	cmneq	pc, #1
    1814:	b90a0000 	stmdblt	sl, {}	; <UNPREDICTABLE>
    1818:	04000003 	streq	r0, [r0], #-3
    181c:	00005e62 	andeq	r5, r0, r2, ror #28
    1820:	74700b00 	ldrbtvc	r0, [r0], #-2816	; 0xb00
    1824:	c7630400 	strbgt	r0, [r3, -r0, lsl #8]!
    1828:	0b000001 	bleq	1834 <PHYS_OFFSET-0x7fffe7cc>
    182c:	006d3270 	rsbeq	r3, sp, r0, ror r2
    1830:	02d76404 	sbcseq	r6, r7, #67108864	; 0x4000000
    1834:	7f0a0000 	svcvc	0x000a0000
    1838:	04000001 	streq	r0, [r0], #-1
    183c:	00034065 	andeq	r4, r3, r5, rrx
    1840:	f0050000 			; <UNDEFINED> instruction: 0xf0050000
    1844:	04000001 	streq	r0, [r0], #-1
    1848:	00034b66 	andeq	r4, r3, r6, ror #22
    184c:	03120500 	tsteq	r2, #0
    1850:	09050000 	stmdbeq	r5, {}	; <UNPREDICTABLE>
    1854:	00000069 	andeq	r0, r0, r9, rrx
    1858:	0452010c 	ldrbeq	r0, [r2], #-268	; 0x10c
    185c:	f2010000 	vhadd.s8	d0, d1, d0
    1860:	03ad0101 			; <UNDEFINED> instruction: 0x03ad0101
    1864:	690d0000 	stmdbvs	sp, {}	; <UNPREDICTABLE>
    1868:	adf70100 	ldfgee	f0, [r7]
    186c:	00000003 	andeq	r0, r0, r3
    1870:	6905040e 	stmdbvs	r5, {r1, r2, r3, sl}
    1874:	0f00746e 	svceq	0x0000746e
    1878:	0001a801 	andeq	sl, r1, r1, lsl #16
    187c:	01800100 	orreq	r0, r0, r0, lsl #2
    1880:	000003f0 	strdeq	r0, [r0], -r0	; <UNPREDICTABLE>
    1884:	f0000b24 			; <UNDEFINED> instruction: 0xf0000b24
    1888:	f0000b3c 			; <UNDEFINED> instruction: 0xf0000b3c
    188c:	01007d02 	tsteq	r0, r2, lsl #26
    1890:	000003f0 	strdeq	r0, [r0], -r0	; <UNPREDICTABLE>
    1894:	00024810 	andeq	r4, r2, r0, lsl r8
    1898:	8a800100 	bhi	fe001ca0 <_hmm_pgtable+0xdffbca0>
    189c:	a1000003 	tstge	r0, r3
    18a0:	11000008 	tstne	r0, r8
    18a4:	000001b5 			; <UNDEFINED> instruction: 0x000001b5
    18a8:	03f08201 	mvnseq	r8, #268435456	; 0x10000000
    18ac:	08c20000 	stmiaeq	r2, {}^	; <UNPREDICTABLE>
    18b0:	12000000 	andne	r0, r0, #0
    18b4:	00037f04 	andeq	r7, r3, r4, lsl #30
    18b8:	f8011300 			; <UNDEFINED> instruction: 0xf8011300
    18bc:	01000001 	tsteq	r0, r1
    18c0:	0b3c018a 	bleq	f01ef0 <PHYS_OFFSET-0x7f0fe110>
    18c4:	0b54f000 	bleq	153d8cc <PHYS_OFFSET-0x7eac2734>
    18c8:	7d02f000 	stcvc	0, cr15, [r2, #-0]
    18cc:	04430100 	strbeq	r0, [r3], #-256	; 0x100
    18d0:	07140000 	ldreq	r0, [r4, -r0]
    18d4:	01000002 	tsteq	r0, r2
    18d8:	0003ad8a 	andeq	sl, r3, sl, lsl #27
    18dc:	15500100 	ldrbne	r0, [r0, #-256]	; 0x100
    18e0:	00726368 	rsbseq	r6, r2, r8, ror #6
    18e4:	004c8c01 	subeq	r8, ip, r1, lsl #24
    18e8:	53010000 	movwpl	r0, #4096	; 0x1000
    18ec:	000b3c16 	andeq	r3, fp, r6, lsl ip
    18f0:	000b40f0 	strdeq	r4, [fp], -r0
    18f4:	009a11f0 			; <UNDEFINED> instruction: 0x009a11f0
    18f8:	8f010000 	svchi	0x00010000
    18fc:	0000004c 	andeq	r0, r0, ip, asr #32
    1900:	000008e1 	andeq	r0, r0, r1, ror #17
    1904:	01170000 	tsteq	r7, r0
    1908:	00000232 	andeq	r0, r0, r2, lsr r2
    190c:	41019801 	tstmi	r1, r1, lsl #16
    1910:	54000000 	strpl	r0, [r0], #-0
    1914:	40f0000b 	rscsmi	r0, r0, fp
    1918:	f4f0000c 			; <UNDEFINED> instruction: 0xf4f0000c
    191c:	01000008 	tsteq	r0, r8
    1920:	0000052d 	andeq	r0, r0, sp, lsr #10
    1924:	00024810 	andeq	r4, r2, r0, lsl r8
    1928:	8a980100 	bhi	fe601d30 <_hmm_pgtable+0xe5fbd30>
    192c:	20000003 	andcs	r0, r0, r3
    1930:	10000009 	andne	r0, r0, r9
    1934:	000001b5 			; <UNDEFINED> instruction: 0x000001b5
    1938:	03f09801 	mvnseq	r9, #65536	; 0x10000
    193c:	09410000 	stmdbeq	r1, {}^	; <UNPREDICTABLE>
    1940:	d5110000 	ldrle	r0, [r1, #-0]
    1944:	01000004 	tsteq	r0, r4
    1948:	00005e9a 	muleq	r0, sl, lr
    194c:	00096d00 	andeq	r6, r9, r0, lsl #26
    1950:	00801800 	addeq	r1, r0, r0, lsl #16
    1954:	04b40000 	ldrteq	r0, [r4], #0
    1958:	76190000 	ldrvc	r0, [r9], -r0
    195c:	a0010031 	andge	r0, r1, r1, lsr r0
    1960:	0000004c 	andeq	r0, r0, ip, asr #32
    1964:	000009c5 	andeq	r0, r0, r5, asr #19
    1968:	00327619 	eorseq	r7, r2, r9, lsl r6
    196c:	004ca001 	subeq	sl, ip, r1
    1970:	09d80000 	ldmibeq	r8, {}^	; <UNPREDICTABLE>
    1974:	18000000 	stmdane	r0, {}	; <UNPREDICTABLE>
    1978:	000000a8 	andeq	r0, r0, r8, lsr #1
    197c:	000004da 	ldrdeq	r0, [r0], -sl
    1980:	00317619 	eorseq	r7, r1, r9, lsl r6
    1984:	004ca801 	subeq	sl, ip, r1, lsl #16
    1988:	09f60000 	ldmibeq	r6!, {}^	; <UNPREDICTABLE>
    198c:	76190000 	ldrvc	r0, [r9], -r0
    1990:	a8010032 	stmdage	r1, {r1, r4, r5}
    1994:	0000004c 	andeq	r0, r0, ip, asr #32
    1998:	00000a09 	andeq	r0, r0, r9, lsl #20
    199c:	0b901a00 	bleq	fe4081a4 <_hmm_pgtable+0xe4021a4>
    19a0:	1288f000 	addne	pc, r8, #0
    19a4:	04f10000 	ldrbteq	r0, [r1], #0
    19a8:	011b0000 	tsteq	fp, r0
    19ac:	8c030550 	cfstr32hi	mvfx0, [r3], {80}	; 0x50
    19b0:	00f00017 	rscseq	r0, r0, r7, lsl r0
    19b4:	000b9c1c 	andeq	r9, fp, ip, lsl ip
    19b8:	0012a9f0 			; <UNDEFINED> instruction: 0x0012a9f0
    19bc:	0bb81c00 	bleq	fee089c4 <_hmm_pgtable+0xee029c4>
    19c0:	1288f000 	addne	pc, r8, #0
    19c4:	1c1a0000 	ldcne	0, cr0, [sl], {-0}
    19c8:	88f0000c 	ldmhi	r0!, {r2, r3}^
    19cc:	1a000012 	bne	1a1c <PHYS_OFFSET-0x7fffe5e4>
    19d0:	1b000005 	blne	19ec <PHYS_OFFSET-0x7fffe614>
    19d4:	03055001 	movweq	r5, #20481	; 0x5001
    19d8:	f000179c 			; <UNDEFINED> instruction: 0xf000179c
    19dc:	0c281c00 	stceq	12, cr1, [r8], #-0
    19e0:	12a9f000 	adcne	pc, r9, #0
    19e4:	341c0000 	ldrcc	r0, [ip], #-0
    19e8:	88f0000c 	ldmhi	r0!, {r2, r3}^
    19ec:	00000012 	andeq	r0, r0, r2, lsl r0
    19f0:	04ac0117 	strteq	r0, [ip], #279	; 0x117
    19f4:	ae010000 	cdpge	0, 0, cr0, cr1, cr0, {0}
    19f8:	00037f01 	andeq	r7, r3, r1, lsl #30
    19fc:	000c4000 	andeq	r4, ip, r0
    1a00:	000ce0f0 	strdeq	lr, [ip], -r0
    1a04:	000a1cf0 	strdeq	r1, [sl], -r0
    1a08:	05680100 	strbeq	r0, [r8, #-256]!	; 0x100
    1a0c:	701d0000 	andsvc	r0, sp, r0
    1a10:	ae010061 	cdpge	0, 0, cr0, cr1, cr1, {3}
    1a14:	0000005e 	andeq	r0, r0, lr, asr r0
    1a18:	00000a3c 	andeq	r0, r0, ip, lsr sl
    1a1c:	00047b1e 	andeq	r7, r4, lr, lsl fp
    1a20:	7fb00100 	svcvc	0x00b00100
    1a24:	02000003 	andeq	r0, r0, #3
    1a28:	17000070 	smlsdxne	r0, r0, r0, r0
    1a2c:	00048101 	andeq	r8, r4, r1, lsl #2
    1a30:	01cd0100 	biceq	r0, sp, r0, lsl #2
    1a34:	0000037f 	andeq	r0, r0, pc, ror r3
    1a38:	f0000ce0 			; <UNDEFINED> instruction: 0xf0000ce0
    1a3c:	f0000dd4 			; <UNDEFINED> instruction: 0xf0000dd4
    1a40:	00000a64 	andeq	r0, r0, r4, ror #20
    1a44:	00063b01 	andeq	r3, r6, r1, lsl #22
    1a48:	61701d00 	cmnvs	r0, r0, lsl #26
    1a4c:	5ecd0100 	polple	f0, f5, f0
    1a50:	84000000 	strhi	r0, [r0], #-0
    1a54:	1400000a 	strne	r0, [r0], #-10
    1a58:	00000442 	andeq	r0, r0, r2, asr #8
    1a5c:	0069cd01 	rsbeq	ip, r9, r1, lsl #26
    1a60:	91020000 	mrsls	r0, (UNDEF: 2)
    1a64:	047b1100 	ldrbteq	r1, [fp], #-256	; 0x100
    1a68:	cf010000 	svcgt	0x00010000
    1a6c:	0000037f 	andeq	r0, r0, pc, ror r3
    1a70:	00000aac 	andeq	r0, r0, ip, lsr #21
    1a74:	000d081a 	andeq	r0, sp, sl, lsl r8
    1a78:	001288f0 			; <UNDEFINED> instruction: 0x001288f0
    1a7c:	0005c800 	andeq	ip, r5, r0, lsl #16
    1a80:	50011b00 	andpl	r1, r1, r0, lsl #22
    1a84:	17ac0305 	strne	r0, [ip, r5, lsl #6]!
    1a88:	1a00f000 	bne	3da90 <PHYS_OFFSET-0x7ffc2570>
    1a8c:	f0000d1c 			; <UNDEFINED> instruction: 0xf0000d1c
    1a90:	00001288 	andeq	r1, r0, r8, lsl #5
    1a94:	000005df 	ldrdeq	r0, [r0], -pc	; <UNPREDICTABLE>
    1a98:	0550011b 	ldrbeq	r0, [r0, #-283]	; 0x11b
    1a9c:	0017cc03 	andseq	ip, r7, r3, lsl #24
    1aa0:	281c00f0 	ldmdacs	ip, {r4, r5, r6, r7}
    1aa4:	a9f0000d 	ldmibge	r0!, {r0, r2, r3}^
    1aa8:	1a000012 	bne	1af8 <PHYS_OFFSET-0x7fffe508>
    1aac:	f0000d30 			; <UNDEFINED> instruction: 0xf0000d30
    1ab0:	00001288 	andeq	r1, r0, r8, lsl #5
    1ab4:	000005fc 	strdeq	r0, [r0], -ip
    1ab8:	0250011b 	subseq	r0, r0, #-1073741818	; 0xc0000006
    1abc:	1a000076 	bne	1c9c <PHYS_OFFSET-0x7fffe364>
    1ac0:	f0000d3c 			; <UNDEFINED> instruction: 0xf0000d3c
    1ac4:	00001288 	andeq	r1, r0, r8, lsl #5
    1ac8:	00000613 	andeq	r0, r0, r3, lsl r6
    1acc:	0550011b 	ldrbeq	r0, [r0, #-283]	; 0x11b
    1ad0:	0017d403 	andseq	sp, r7, r3, lsl #8
    1ad4:	441a00f0 	ldrmi	r0, [sl], #-240	; 0xf0
    1ad8:	bdf0000d 	ldcllt	0, cr0, [r0, #52]!	; 0x34
    1adc:	27000012 	smladcs	r0, r2, r0, r0
    1ae0:	1b000006 	blne	1b00 <PHYS_OFFSET-0x7fffe500>
    1ae4:	78025001 	stmdavc	r2, {r0, ip, lr}
    1ae8:	501f0000 	andspl	r0, pc, r0
    1aec:	88f0000d 	ldmhi	r0!, {r0, r2, r3}^
    1af0:	1b000012 	blne	1b40 <PHYS_OFFSET-0x7fffe4c0>
    1af4:	03055001 	movweq	r5, #20481	; 0x5001
    1af8:	f00014fc 			; <UNDEFINED> instruction: 0xf00014fc
    1afc:	95200000 	strls	r0, [r0, #-0]!
    1b00:	d4000003 	strle	r0, [r0], #-3
    1b04:	f8f0000d 			; <UNDEFINED> instruction: 0xf8f0000d
    1b08:	02f0000d 	rscseq	r0, r0, #13
    1b0c:	5701007d 	smlsdxpl	r1, sp, r0, r0
    1b10:	21000006 	tstcs	r0, r6
    1b14:	000003a3 	andeq	r0, r0, r3, lsr #7
    1b18:	01220002 	teqeq	r2, r2
    1b1c:	000004a2 	andeq	r0, r0, r2, lsr #9
    1b20:	01012801 	tsteq	r1, r1, lsl #16
    1b24:	f0000df8 			; <UNDEFINED> instruction: 0xf0000df8
    1b28:	f0000fac 			; <UNDEFINED> instruction: 0xf0000fac
    1b2c:	00000acc 	andeq	r0, r0, ip, asr #21
    1b30:	0008e301 	andeq	lr, r8, r1, lsl #6
    1b34:	00692300 	rsbeq	r2, r9, r0, lsl #6
    1b38:	ad012a01 	vstrge	s4, [r1, #-4]
    1b3c:	f8000003 			; <UNDEFINED> instruction: 0xf8000003
    1b40:	2300000a 	movwcs	r0, #10
    1b44:	01006170 	tsteq	r0, r0, ror r1
    1b48:	005e012b 	subseq	r0, lr, fp, lsr #2
    1b4c:	0b170000 	bleq	5c1b54 <PHYS_OFFSET-0x7fa3e4ac>
    1b50:	241a0000 	ldrcs	r0, [sl], #-0
    1b54:	68f0000e 	ldmvs	r0!, {r1, r2, r3}^
    1b58:	aa000005 	bge	1b74 <PHYS_OFFSET-0x7fffe48c>
    1b5c:	1b000006 	blne	1b7c <PHYS_OFFSET-0x7fffe484>
    1b60:	91025001 	tstls	r2, r1
    1b64:	7d021b50 	vstrvc	d1, [r2, #-320]	; 0xfffffec0
    1b68:	00780200 	rsbseq	r0, r8, r0, lsl #4
    1b6c:	0e501a00 	vnmlseq.f32	s3, s0, s0
    1b70:	1288f000 	addne	pc, r8, #0
    1b74:	06c10000 	strbeq	r0, [r1], r0
    1b78:	011b0000 	tsteq	fp, r0
    1b7c:	e0030550 	and	r0, r3, r0, asr r5
    1b80:	00f00017 	rscseq	r0, r0, r7, lsl r0
    1b84:	000e581a 	andeq	r5, lr, sl, lsl r8
    1b88:	0012bdf0 			; <UNDEFINED> instruction: 0x0012bdf0
    1b8c:	0006d600 	andeq	sp, r6, r0, lsl #12
    1b90:	50011b00 	andpl	r1, r1, r0, lsl #22
    1b94:	60907403 	addsvs	r7, r0, r3, lsl #8
    1b98:	0e601a00 	vmuleq.f32	s3, s0, s0
    1b9c:	1288f000 	addne	pc, r8, #0
    1ba0:	06ed0000 	strbteq	r0, [sp], r0
    1ba4:	011b0000 	tsteq	fp, r0
    1ba8:	fc030550 	stc2	5, cr0, [r3], {80}	; 0x50
    1bac:	00f00014 	rscseq	r0, r0, r4, lsl r0
    1bb0:	000e681a 	andeq	r6, lr, sl, lsl r8
    1bb4:	001288f0 			; <UNDEFINED> instruction: 0x001288f0
    1bb8:	00070400 	andeq	r0, r7, r0, lsl #8
    1bbc:	50011b00 	andpl	r1, r1, r0, lsl #22
    1bc0:	17f40305 	ldrbne	r0, [r4, r5, lsl #6]!
    1bc4:	1c00f000 	stcne	0, cr15, [r0], {-0}
    1bc8:	f0000e70 			; <UNDEFINED> instruction: 0xf0000e70
    1bcc:	000012a9 	andeq	r1, r0, r9, lsr #5
    1bd0:	000e781a 	andeq	r7, lr, sl, lsl r8
    1bd4:	001288f0 			; <UNDEFINED> instruction: 0x001288f0
    1bd8:	00072400 	andeq	r2, r7, r0, lsl #8
    1bdc:	50011b00 	andpl	r1, r1, r0, lsl #22
    1be0:	14fc0305 	ldrbtne	r0, [ip], #773	; 0x305
    1be4:	1a00f000 	bne	3dbec <PHYS_OFFSET-0x7ffc2414>
    1be8:	f0000e8c 			; <UNDEFINED> instruction: 0xf0000e8c
    1bec:	00000568 	andeq	r0, r0, r8, ror #10
    1bf0:	0000073f 	andeq	r0, r0, pc, lsr r7
    1bf4:	0250011b 	subseq	r0, r0, #-1073741818	; 0xc0000006
    1bf8:	021b5091 	andseq	r5, fp, #145	; 0x91
    1bfc:	7a02007d 	bvc	81df8 <PHYS_OFFSET-0x7ff7e208>
    1c00:	9c1a0000 	ldcls	0, cr0, [sl], {-0}
    1c04:	88f0000e 	ldmhi	r0!, {r1, r2, r3}^
    1c08:	56000012 			; <UNDEFINED> instruction: 0x56000012
    1c0c:	1b000007 	blne	1c30 <PHYS_OFFSET-0x7fffe3d0>
    1c10:	03055001 	movweq	r5, #20481	; 0x5001
    1c14:	f00017fc 			; <UNDEFINED> instruction: 0xf00017fc
    1c18:	0ea41a00 	vfmaeq.f32	s2, s8, s0
    1c1c:	12bdf000 	adcsne	pc, sp, #0
    1c20:	076d0000 	strbeq	r0, [sp, -r0]!
    1c24:	011b0000 	tsteq	fp, r0
    1c28:	08030550 	stmdaeq	r3, {r4, r6, r8, sl}
    1c2c:	00f00060 	rscseq	r0, r0, r0, rrx
    1c30:	000eac1a 	andeq	sl, lr, sl, lsl ip
    1c34:	001288f0 			; <UNDEFINED> instruction: 0x001288f0
    1c38:	00078400 	andeq	r8, r7, r0, lsl #8
    1c3c:	50011b00 	andpl	r1, r1, r0, lsl #22
    1c40:	14fc0305 	ldrbtne	r0, [ip], #773	; 0x305
    1c44:	1a00f000 	bne	3dc4c <PHYS_OFFSET-0x7ffc23b4>
    1c48:	f0000eb4 			; <UNDEFINED> instruction: 0xf0000eb4
    1c4c:	00001288 	andeq	r1, r0, r8, lsl #5
    1c50:	0000079b 	muleq	r0, fp, r7
    1c54:	0550011b 	ldrbeq	r0, [r0, #-283]	; 0x11b
    1c58:	0017f403 	andseq	pc, r7, r3, lsl #8
    1c5c:	bc1c00f0 	ldclt	0, cr0, [ip], {240}	; 0xf0
    1c60:	a9f0000e 	ldmibge	r0!, {r1, r2, r3}^
    1c64:	1a000012 	bne	1cb4 <PHYS_OFFSET-0x7fffe34c>
    1c68:	f0000ec4 			; <UNDEFINED> instruction: 0xf0000ec4
    1c6c:	00001288 	andeq	r1, r0, r8, lsl #5
    1c70:	000007bb 			; <UNDEFINED> instruction: 0x000007bb
    1c74:	0550011b 	ldrbeq	r0, [r0, #-283]	; 0x11b
    1c78:	0014fc03 	andseq	pc, r4, r3, lsl #24
    1c7c:	d81a00f0 	ldmdale	sl, {r4, r5, r6, r7}
    1c80:	68f0000e 	ldmvs	r0!, {r1, r2, r3}^
    1c84:	d6000005 	strle	r0, [r0], -r5
    1c88:	1b000007 	blne	1cac <PHYS_OFFSET-0x7fffe354>
    1c8c:	91025001 	tstls	r2, r1
    1c90:	7d021b50 	vstrvc	d1, [r2, #-320]	; 0xfffffec0
    1c94:	007a0200 	rsbseq	r0, sl, r0, lsl #4
    1c98:	0ee81a00 	vfmaeq.f32	s3, s16, s0
    1c9c:	1288f000 	addne	pc, r8, #0
    1ca0:	07ed0000 	strbeq	r0, [sp, r0]!
    1ca4:	011b0000 	tsteq	fp, r0
    1ca8:	10030550 	andne	r0, r3, r0, asr r5
    1cac:	00f00018 	rscseq	r0, r0, r8, lsl r0
    1cb0:	000ef01a 	andeq	pc, lr, sl, lsl r0	; <UNPREDICTABLE>
    1cb4:	0012bdf0 			; <UNDEFINED> instruction: 0x0012bdf0
    1cb8:	00080200 	andeq	r0, r8, r0, lsl #4
    1cbc:	50011b00 	andpl	r1, r1, r0, lsl #22
    1cc0:	60a07403 	adcvs	r7, r0, r3, lsl #8
    1cc4:	0ef81a00 	vmoveq.f32	s3, #128	; 0x80
    1cc8:	1288f000 	addne	pc, r8, #0
    1ccc:	08190000 	ldmdaeq	r9, {}	; <UNPREDICTABLE>
    1cd0:	011b0000 	tsteq	fp, r0
    1cd4:	fc030550 	stc2	5, cr0, [r3], {80}	; 0x50
    1cd8:	00f00014 	rscseq	r0, r0, r4, lsl r0
    1cdc:	000f001a 	andeq	r0, pc, sl, lsl r0	; <UNPREDICTABLE>
    1ce0:	001288f0 			; <UNDEFINED> instruction: 0x001288f0
    1ce4:	00083000 	andeq	r3, r8, r0
    1ce8:	50011b00 	andpl	r1, r1, r0, lsl #22
    1cec:	17f40305 	ldrbne	r0, [r4, r5, lsl #6]!
    1cf0:	1c00f000 	stcne	0, cr15, [r0], {-0}
    1cf4:	f0000f08 			; <UNDEFINED> instruction: 0xf0000f08
    1cf8:	000012a9 	andeq	r1, r0, r9, lsr #5
    1cfc:	000f101a 	andeq	r1, pc, sl, lsl r0	; <UNPREDICTABLE>
    1d00:	001288f0 			; <UNDEFINED> instruction: 0x001288f0
    1d04:	00085000 	andeq	r5, r8, r0
    1d08:	50011b00 	andpl	r1, r1, r0, lsl #22
    1d0c:	14fc0305 	ldrbtne	r0, [ip], #773	; 0x305
    1d10:	1a00f000 	bne	3dd18 <PHYS_OFFSET-0x7ffc22e8>
    1d14:	f0000f28 			; <UNDEFINED> instruction: 0xf0000f28
    1d18:	00000568 	andeq	r0, r0, r8, ror #10
    1d1c:	0000086a 	andeq	r0, r0, sl, ror #16
    1d20:	0250011b 	subseq	r0, r0, #-1073741818	; 0xc0000006
    1d24:	021b5091 	andseq	r5, fp, #145	; 0x91
    1d28:	3301007d 	movwcc	r0, #4221	; 0x107d
    1d2c:	0f381a00 	svceq	0x00381a00
    1d30:	1288f000 	addne	pc, r8, #0
    1d34:	08810000 	stmeq	r1, {}	; <UNPREDICTABLE>
    1d38:	011b0000 	tsteq	fp, r0
    1d3c:	24030550 	strcs	r0, [r3], #-1360	; 0x550
    1d40:	00f00018 	rscseq	r0, r0, r8, lsl r0
    1d44:	000f401a 	andeq	r4, pc, sl, lsl r0	; <UNPREDICTABLE>
    1d48:	0012bdf0 			; <UNDEFINED> instruction: 0x0012bdf0
    1d4c:	00089800 	andeq	r9, r8, r0, lsl #16
    1d50:	50011b00 	andpl	r1, r1, r0, lsl #22
    1d54:	60180305 	andsvs	r0, r8, r5, lsl #6
    1d58:	1a00f000 	bne	3dd60 <PHYS_OFFSET-0x7ffc22a0>
    1d5c:	f0000f48 			; <UNDEFINED> instruction: 0xf0000f48
    1d60:	00001288 	andeq	r1, r0, r8, lsl #5
    1d64:	000008af 	andeq	r0, r0, pc, lsr #17
    1d68:	0550011b 	ldrbeq	r0, [r0, #-283]	; 0x11b
    1d6c:	0014fc03 	andseq	pc, r4, r3, lsl #24
    1d70:	501a00f0 	ldrshpl	r0, [sl], -r0	; <UNPREDICTABLE>
    1d74:	88f0000f 	ldmhi	r0!, {r0, r1, r2, r3}^
    1d78:	c6000012 			; <UNDEFINED> instruction: 0xc6000012
    1d7c:	1b000008 	blne	1da4 <PHYS_OFFSET-0x7fffe25c>
    1d80:	03055001 	movweq	r5, #20481	; 0x5001
    1d84:	f00017f4 			; <UNDEFINED> instruction: 0xf00017f4
    1d88:	0f581c00 	svceq	0x00581c00
    1d8c:	12a9f000 	adcne	pc, r9, #0
    1d90:	601f0000 	andsvs	r0, pc, r0
    1d94:	88f0000f 	ldmhi	r0!, {r0, r1, r2, r3}^
    1d98:	1b000012 	blne	1de8 <PHYS_OFFSET-0x7fffe218>
    1d9c:	03055001 	movweq	r5, #20481	; 0x5001
    1da0:	f00014fc 			; <UNDEFINED> instruction: 0xf00014fc
    1da4:	01240000 	teqeq	r4, r0
    1da8:	00000305 	andeq	r0, r0, r5, lsl #6
    1dac:	01014301 	tsteq	r1, r1, lsl #6
    1db0:	000003ad 	andeq	r0, r0, sp, lsr #7
    1db4:	f0000fac 			; <UNDEFINED> instruction: 0xf0000fac
    1db8:	f000137c 			; <UNDEFINED> instruction: 0xf000137c
    1dbc:	00000b83 	andeq	r0, r0, r3, lsl #23
    1dc0:	00121c01 	andseq	r1, r2, r1, lsl #24
    1dc4:	04f32500 	ldrbteq	r2, [r3], #1280	; 0x500
    1dc8:	4d010000 	stcmi	0, cr0, [r1, #-0]
    1dcc:	00004c01 	andeq	r4, r0, r1, lsl #24
    1dd0:	000ba300 	andeq	sl, fp, r0, lsl #6
    1dd4:	045c2500 	ldrbeq	r2, [ip], #-1280	; 0x500
    1dd8:	4d010000 	stcmi	0, cr0, [r1, #-0]
    1ddc:	00004c01 	andeq	r4, r0, r1, lsl #24
    1de0:	000bb600 	andeq	fp, fp, r0, lsl #12
    1de4:	044b2500 	strbeq	r2, [fp], #-1280	; 0x500
    1de8:	4d010000 	stcmi	0, cr0, [r1, #-0]
    1dec:	00004c01 	andeq	r4, r0, r1, lsl #24
    1df0:	000bc900 	andeq	ip, fp, r0, lsl #18
    1df4:	04612500 	strbteq	r2, [r1], #-1280	; 0x500
    1df8:	4d010000 	stcmi	0, cr0, [r1, #-0]
    1dfc:	00004c01 	andeq	r4, r0, r1, lsl #24
    1e00:	000c1c00 	andeq	r1, ip, r0, lsl #24
    1e04:	63682300 	cmnvs	r8, #0
    1e08:	4d010072 	stcmi	0, cr0, [r1, #-456]	; 0xfffffe38
    1e0c:	00004c01 	andeq	r4, r0, r1, lsl #24
    1e10:	000c4500 	andeq	r4, ip, r0, lsl #10
    1e14:	04db2500 	ldrbeq	r2, [fp], #1280	; 0x500
    1e18:	4e010000 	cdpmi	0, 0, cr0, cr1, cr0, {0}
    1e1c:	00005e01 	andeq	r5, r0, r1, lsl #28
    1e20:	000c5800 	andeq	r5, ip, r0, lsl #16
    1e24:	04d52500 	ldrbeq	r2, [r5], #1280	; 0x500
    1e28:	4e010000 	cdpmi	0, 0, cr0, cr1, cr0, {0}
    1e2c:	00005e01 	andeq	r5, r0, r1, lsl #28
    1e30:	000ca000 	andeq	sl, ip, r0
    1e34:	03952600 	orrseq	r2, r5, #0
    1e38:	0fb80000 	svceq	0x00b80000
    1e3c:	0fccf000 	svceq	0x00ccf000
    1e40:	5101f000 	mrspl	pc, (UNDEF: 1)	; <UNPREDICTABLE>
    1e44:	00099701 	andeq	r9, r9, r1, lsl #14
    1e48:	0fb81600 	svceq	0x00b81600
    1e4c:	0fccf000 	svceq	0x00ccf000
    1e50:	a321f000 	msrge	CPSR_c, #0
    1e54:	02000003 	andeq	r0, r0, #3
    1e58:	d8270000 	stmdale	r7!, {}	; <UNPREDICTABLE>
    1e5c:	dcf0000f 	ldclle	0, cr0, [r0], #60	; 0x3c
    1e60:	b5f0000f 	ldrblt	r0, [r0, #15]!
    1e64:	25000009 	strcs	r0, [r0, #-9]
    1e68:	0000009a 	muleq	r0, sl, r0
    1e6c:	4c015601 	stcmi	6, cr5, [r1], {1}
    1e70:	b8000000 	stmdalt	r0, {}	; <UNPREDICTABLE>
    1e74:	0000000c 	andeq	r0, r0, ip
    1e78:	000ff427 	andeq	pc, pc, r7, lsr #8
    1e7c:	000ff8f0 	strdeq	pc, [pc], -r0
    1e80:	0009d3f0 	strdeq	sp, [r9], -r0
    1e84:	009a2500 	addseq	r2, sl, r0, lsl #10
    1e88:	57010000 	strpl	r0, [r1, -r0]
    1e8c:	00004c01 	andeq	r4, r0, r1, lsl #24
    1e90:	000ccb00 	andeq	ip, ip, r0, lsl #22
    1e94:	10270000 	eorne	r0, r7, r0
    1e98:	14f00010 	ldrbtne	r0, [r0], #16
    1e9c:	f1f00010 			; <UNDEFINED> instruction: 0xf1f00010
    1ea0:	25000009 	strcs	r0, [r0, #-9]
    1ea4:	0000009a 	muleq	r0, sl, r0
    1ea8:	4c015801 	stcmi	8, cr5, [r1], {1}
    1eac:	de000000 	cdple	0, 0, cr0, cr0, cr0, {0}
    1eb0:	0000000c 	andeq	r0, r0, ip
    1eb4:	00102c27 	andseq	r2, r0, r7, lsr #24
    1eb8:	001030f0 	ldrsheq	r3, [r0], -r0
    1ebc:	000a0ff0 	strdeq	r0, [sl], -r0	; <UNPREDICTABLE>
    1ec0:	009a2500 	addseq	r2, sl, r0, lsl #10
    1ec4:	59010000 	stmdbpl	r1, {}	; <UNPREDICTABLE>
    1ec8:	00004c01 	andeq	r4, r0, r1, lsl #24
    1ecc:	000cf100 	andeq	pc, ip, r0, lsl #2
    1ed0:	68270000 	stmdavs	r7!, {}	; <UNPREDICTABLE>
    1ed4:	6cf00010 	ldclvs	0, cr0, [r0], #64	; 0x40
    1ed8:	2df00010 	ldclcs	0, cr0, [r0, #64]!	; 0x40
    1edc:	2500000a 	strcs	r0, [r0, #-10]
    1ee0:	0000009a 	muleq	r0, sl, r0
    1ee4:	4c016001 	stcmi	0, cr6, [r1], {1}
    1ee8:	04000000 	streq	r0, [r0], #-0
    1eec:	0000000d 	andeq	r0, r0, sp
    1ef0:	00108427 	andseq	r8, r0, r7, lsr #8
    1ef4:	001088f0 			; <UNDEFINED> instruction: 0x001088f0
    1ef8:	000a4bf0 	strdeq	r4, [sl], -r0
    1efc:	009a2500 	addseq	r2, sl, r0, lsl #10
    1f00:	61010000 	mrsvs	r0, (UNDEF: 1)
    1f04:	00004c01 	andeq	r4, r0, r1, lsl #24
    1f08:	000d1700 	andeq	r1, sp, r0, lsl #14
    1f0c:	a0270000 	eorge	r0, r7, r0
    1f10:	a4f00010 	ldrbtge	r0, [r0], #16
    1f14:	69f00010 	ldmibvs	r0!, {r4}^
    1f18:	2500000a 	strcs	r0, [r0, #-10]
    1f1c:	0000009a 	muleq	r0, sl, r0
    1f20:	4c016201 	sfmmi	f6, 4, [r1], {1}
    1f24:	2a000000 	bcs	1f2c <PHYS_OFFSET-0x7fffe0d4>
    1f28:	0000000d 	andeq	r0, r0, sp
    1f2c:	0010bc27 	andseq	fp, r0, r7, lsr #24
    1f30:	0010c0f0 	ldrsheq	ip, [r0], -r0
    1f34:	000a87f0 	strdeq	r8, [sl], -r0
    1f38:	009a2500 	addseq	r2, sl, r0, lsl #10
    1f3c:	63010000 	movwvs	r0, #4096	; 0x1000
    1f40:	00004c01 	andeq	r4, r0, r1, lsl #24
    1f44:	000d3d00 	andeq	r3, sp, r0, lsl #26
    1f48:	e0270000 	eor	r0, r7, r0
    1f4c:	e4f00010 	ldrbt	r0, [r0], #16
    1f50:	a5f00010 	ldrbge	r0, [r0, #16]!
    1f54:	2500000a 	strcs	r0, [r0, #-10]
    1f58:	0000009a 	muleq	r0, sl, r0
    1f5c:	4c016701 	stcmi	7, cr6, [r1], {1}
    1f60:	50000000 	andpl	r0, r0, r0
    1f64:	0000000d 	andeq	r0, r0, sp
    1f68:	00110827 	andseq	r0, r1, r7, lsr #16
    1f6c:	00110cf0 			; <UNDEFINED> instruction: 0x00110cf0
    1f70:	000ac3f0 	strdeq	ip, [sl], -r0
    1f74:	009a2500 	addseq	r2, sl, r0, lsl #10
    1f78:	69010000 	stmdbvs	r1, {}	; <UNPREDICTABLE>
    1f7c:	00004c01 	andeq	r4, r0, r1, lsl #24
    1f80:	000d6300 	andeq	r6, sp, r0, lsl #6
    1f84:	24270000 	strtcs	r0, [r7], #-0
    1f88:	28f00011 	ldmcs	r0!, {r0, r4}^
    1f8c:	e1f00011 	mvns	r0, r1, lsl r0
    1f90:	2500000a 	strcs	r0, [r0, #-10]
    1f94:	0000009a 	muleq	r0, sl, r0
    1f98:	4c016e01 	stcmi	14, cr6, [r1], {1}
    1f9c:	76000000 	strvc	r0, [r0], -r0
    1fa0:	0000000d 	andeq	r0, r0, sp
    1fa4:	00114c27 	andseq	r4, r1, r7, lsr #24
    1fa8:	001150f0 	ldrsheq	r5, [r1], -r0
    1fac:	000afff0 	strdeq	pc, [sl], -r0
    1fb0:	009a2500 	addseq	r2, sl, r0, lsl #10
    1fb4:	71010000 	mrsvc	r0, (UNDEF: 1)
    1fb8:	00004c01 	andeq	r4, r0, r1, lsl #24
    1fbc:	000d8900 	andeq	r8, sp, r0, lsl #18
    1fc0:	68270000 	stmdavs	r7!, {}	; <UNPREDICTABLE>
    1fc4:	6cf00011 	ldclvs	0, cr0, [r0], #68	; 0x44
    1fc8:	1df00011 	ldclne	0, cr0, [r0, #68]!	; 0x44
    1fcc:	2500000b 	strcs	r0, [r0, #-11]
    1fd0:	0000009a 	muleq	r0, sl, r0
    1fd4:	4c017401 	cfstrsmi	mvf7, [r1], {1}
    1fd8:	9c000000 	stcls	0, cr0, [r0], {-0}
    1fdc:	0000000d 	andeq	r0, r0, sp
    1fe0:	00119027 	andseq	r9, r1, r7, lsr #32
    1fe4:	001194f0 			; <UNDEFINED> instruction: 0x001194f0
    1fe8:	000b3bf0 	strdeq	r3, [fp], -r0
    1fec:	009a2500 	addseq	r2, sl, r0, lsl #10
    1ff0:	7d010000 	stcvc	0, cr0, [r1, #-0]
    1ff4:	00004c01 	andeq	r4, r0, r1, lsl #24
    1ff8:	000dba00 	andeq	fp, sp, r0, lsl #20
    1ffc:	ac270000 	stcge	0, cr0, [r7], #-0
    2000:	d4f00011 	ldrbtle	r0, [r0], #17
    2004:	b7f00011 			; <UNDEFINED> instruction: 0xb7f00011
    2008:	2300000b 	movwcs	r0, #11
    200c:	00306c73 	eorseq	r6, r0, r3, ror ip
    2010:	4c017f01 	stcmi	15, cr7, [r1], {1}
    2014:	cd000000 	stcgt	0, cr0, [r0, #-0]
    2018:	2500000d 	strcs	r0, [r0, #-13]
    201c:	00000498 	muleq	r0, r8, r4
    2020:	4c018001 	stcmi	0, cr8, [r1], {1}
    2024:	e7000000 	str	r0, [r0, -r0]
    2028:	2500000d 	strcs	r0, [r0, #-13]
    202c:	00000466 	andeq	r0, r0, r6, ror #8
    2030:	4c018101 	stfmid	f0, [r1], {1}
    2034:	fa000000 	blx	203c <PHYS_OFFSET-0x7fffdfc4>
    2038:	1a00000d 	bne	2074 <PHYS_OFFSET-0x7fffdf8c>
    203c:	f00011c4 			; <UNDEFINED> instruction: 0xf00011c4
    2040:	00001288 	andeq	r1, r0, r8, lsl #5
    2044:	00000b8f 	andeq	r0, r0, pc, lsl #23
    2048:	0550011b 	ldrbeq	r0, [r0, #-283]	; 0x11b
    204c:	0018b003 	andseq	fp, r8, r3
    2050:	cc1a00f0 	ldcgt	0, cr0, [sl], {240}	; 0xf0
    2054:	bdf00011 	ldcllt	0, cr0, [r0, #68]!	; 0x44
    2058:	a3000012 	movwge	r0, #18
    205c:	1b00000b 	blne	2090 <PHYS_OFFSET-0x7fffdf70>
    2060:	74025001 	strvc	r5, [r2], #-1
    2064:	d41f0000 	ldrle	r0, [pc], #-0	; 206c <PHYS_OFFSET-0x7fffdf94>
    2068:	88f00011 	ldmhi	r0!, {r0, r4}^
    206c:	1b000012 	blne	20bc <PHYS_OFFSET-0x7fffdf44>
    2070:	03055001 	movweq	r5, #20481	; 0x5001
    2074:	f00014fc 			; <UNDEFINED> instruction: 0xf00014fc
    2078:	c0180000 	andsgt	r0, r8, r0
    207c:	df000000 	svcle	0x00000000
    2080:	2300000b 	movwcs	r0, #11
    2084:	01003176 	tsteq	r0, r6, ror r1
    2088:	004c0185 	subeq	r0, ip, r5, lsl #3
    208c:	0e0d0000 	cdpeq	0, 0, cr0, cr13, cr0, {0}
    2090:	76230000 	strtvc	r0, [r3], -r0
    2094:	85010032 	strhi	r0, [r1, #-50]	; 0x32
    2098:	00004c01 	andeq	r4, r0, r1, lsl #24
    209c:	000e2000 	andeq	r2, lr, r0
    20a0:	00270000 	eoreq	r0, r7, r0
    20a4:	04f00012 	ldrbteq	r0, [r0], #18
    20a8:	fdf00012 	ldc2l	0, cr0, [r0, #72]!	; 0x48
    20ac:	2500000b 	strcs	r0, [r0, #-11]
    20b0:	0000009a 	muleq	r0, sl, r0
    20b4:	4c018801 	stcmi	8, cr8, [r1], {1}
    20b8:	45000000 	strmi	r0, [r0, #-0]
    20bc:	0000000c 	andeq	r0, r0, ip
    20c0:	0000d818 	andeq	sp, r0, r8, lsl r8
    20c4:	000c2500 	andeq	r2, ip, r0, lsl #10
    20c8:	31762300 	cmncc	r6, r0, lsl #6
    20cc:	01a00100 	lsleq	r0, r0, #2
    20d0:	0000004c 	andeq	r0, r0, ip, asr #32
    20d4:	00000e33 	andeq	r0, r0, r3, lsr lr
    20d8:	00327623 	eorseq	r7, r2, r3, lsr #12
    20dc:	4c01a001 	stcmi	0, cr10, [r1], {1}
    20e0:	46000000 	strmi	r0, [r0], -r0
    20e4:	0000000e 	andeq	r0, r0, lr
    20e8:	0000f018 	andeq	pc, r0, r8, lsl r0	; <UNPREDICTABLE>
    20ec:	000c4d00 	andeq	r4, ip, r0, lsl #26
    20f0:	31762300 	cmncc	r6, r0, lsl #6
    20f4:	01a60100 			; <UNDEFINED> instruction: 0x01a60100
    20f8:	0000004c 	andeq	r0, r0, ip, asr #32
    20fc:	00000e59 	andeq	r0, r0, r9, asr lr
    2100:	00327623 	eorseq	r7, r2, r3, lsr #12
    2104:	4c01a601 	stcmi	6, cr10, [r1], {1}
    2108:	6c000000 	stcvs	0, cr0, [r0], {-0}
    210c:	0000000e 	andeq	r0, r0, lr
    2110:	0012d427 	andseq	sp, r2, r7, lsr #8
    2114:	0012d8f0 			; <UNDEFINED> instruction: 0x0012d8f0
    2118:	000c6bf0 	strdeq	r6, [ip], -r0
    211c:	009a2500 	addseq	r2, sl, r0, lsl #10
    2120:	ac010000 	stcge	0, cr0, [r1], {-0}
    2124:	00004c01 	andeq	r4, r0, r1, lsl #24
    2128:	000e7f00 	andeq	r7, lr, r0, lsl #30
    212c:	00270000 	eoreq	r0, r7, r0
    2130:	04f00013 	ldrbteq	r0, [r0], #19
    2134:	87f00013 			; <UNDEFINED> instruction: 0x87f00013
    2138:	2800000c 	stmdacs	r0, {r2, r3}
    213c:	0000009a 	muleq	r0, sl, r0
    2140:	4c01b501 	cfstr32mi	mvfx11, [r1], {1}
    2144:	01000000 	mrseq	r0, (UNDEF: 0)
    2148:	b81a0054 	ldmdalt	sl, {r2, r4, r6}
    214c:	88f0000f 	ldmhi	r0!, {r0, r1, r2, r3}^
    2150:	9e000012 	mcrls	0, 0, r0, cr0, cr2, {0}
    2154:	1b00000c 	blne	218c <PHYS_OFFSET-0x7fffde74>
    2158:	03055001 	movweq	r5, #20481	; 0x5001
    215c:	f0001838 			; <UNDEFINED> instruction: 0xf0001838
    2160:	0fd01c00 	svceq	0x00d01c00
    2164:	0657f000 	ldrbeq	pc, [r7], -r0	; <UNPREDICTABLE>
    2168:	d81a0000 	ldmdale	sl, {}	; <UNPREDICTABLE>
    216c:	88f0000f 	ldmhi	r0!, {r0, r1, r2, r3}^
    2170:	be000012 	mcrlt	0, 0, r0, cr0, cr2, {0}
    2174:	1b00000c 	blne	21ac <PHYS_OFFSET-0x7fffde54>
    2178:	03055001 	movweq	r5, #20481	; 0x5001
    217c:	f0001850 			; <UNDEFINED> instruction: 0xf0001850
    2180:	0fe41a00 	svceq	0x00e41a00
    2184:	1288f000 	addne	pc, r8, #0
    2188:	0cd50000 	ldcleq	0, cr0, [r5], {0}
    218c:	011b0000 	tsteq	fp, r0
    2190:	64030550 	strvs	r0, [r3], #-1360	; 0x550
    2194:	00f00018 	rscseq	r0, r0, r8, lsl r0
    2198:	000fec1a 	andeq	lr, pc, sl, lsl ip	; <UNPREDICTABLE>
    219c:	0012bdf0 			; <UNDEFINED> instruction: 0x0012bdf0
    21a0:	000ce900 	andeq	lr, ip, r0, lsl #18
    21a4:	50011b00 	andpl	r1, r1, r0, lsl #22
    21a8:	00007402 	andeq	r7, r0, r2, lsl #8
    21ac:	000ff41a 	andeq	pc, pc, sl, lsl r4	; <UNPREDICTABLE>
    21b0:	001288f0 			; <UNDEFINED> instruction: 0x001288f0
    21b4:	000d0000 	andeq	r0, sp, r0
    21b8:	50011b00 	andpl	r1, r1, r0, lsl #22
    21bc:	14fc0305 	ldrbtne	r0, [ip], #773	; 0x305
    21c0:	1a00f000 	bne	3e1c8 <PHYS_OFFSET-0x7ffc1e38>
    21c4:	f0001000 			; <UNDEFINED> instruction: 0xf0001000
    21c8:	00001288 	andeq	r1, r0, r8, lsl #5
    21cc:	00000d17 	andeq	r0, r0, r7, lsl sp
    21d0:	0550011b 	ldrbeq	r0, [r0, #-283]	; 0x11b
    21d4:	00186c03 	andseq	r6, r8, r3, lsl #24
    21d8:	081a00f0 	ldmdaeq	sl, {r4, r5, r6, r7}
    21dc:	bdf00010 	ldcllt	0, cr0, [r0, #64]!	; 0x40
    21e0:	2b000012 	blcs	2230 <PHYS_OFFSET-0x7fffddd0>
    21e4:	1b00000d 	blne	2220 <PHYS_OFFSET-0x7fffdde0>
    21e8:	74025001 	strvc	r5, [r2], #-1
    21ec:	101a0000 	andsne	r0, sl, r0
    21f0:	88f00010 	ldmhi	r0!, {r4}^
    21f4:	42000012 	andmi	r0, r0, #18
    21f8:	1b00000d 	blne	2234 <PHYS_OFFSET-0x7fffddcc>
    21fc:	03055001 	movweq	r5, #20481	; 0x5001
    2200:	f00014fc 			; <UNDEFINED> instruction: 0xf00014fc
    2204:	101c1a00 	andsne	r1, ip, r0, lsl #20
    2208:	1288f000 	addne	pc, r8, #0
    220c:	0d590000 	ldcleq	0, cr0, [r9, #-0]
    2210:	011b0000 	tsteq	fp, r0
    2214:	74030550 	strvc	r0, [r3], #-1360	; 0x550
    2218:	00f00018 	rscseq	r0, r0, r8, lsl r0
    221c:	0010241a 	andseq	r2, r0, sl, lsl r4
    2220:	0012bdf0 			; <UNDEFINED> instruction: 0x0012bdf0
    2224:	000d6d00 	andeq	r6, sp, r0, lsl #26
    2228:	50011b00 	andpl	r1, r1, r0, lsl #22
    222c:	00007402 	andeq	r7, r0, r2, lsl #8
    2230:	00102c1a 	andseq	r2, r0, sl, lsl ip
    2234:	001288f0 			; <UNDEFINED> instruction: 0x001288f0
    2238:	000d8400 	andeq	r8, sp, r0, lsl #8
    223c:	50011b00 	andpl	r1, r1, r0, lsl #22
    2240:	14fc0305 	ldrbtne	r0, [ip], #773	; 0x305
    2244:	1a00f000 	bne	3e24c <PHYS_OFFSET-0x7ffc1db4>
    2248:	f0001038 			; <UNDEFINED> instruction: 0xf0001038
    224c:	00001288 	andeq	r1, r0, r8, lsl #5
    2250:	00000d9b 	muleq	r0, fp, sp
    2254:	0550011b 	ldrbeq	r0, [r0, #-283]	; 0x11b
    2258:	00187c03 	andseq	r7, r8, r3, lsl #24
    225c:	401a00f0 	ldrshmi	r0, [sl], -r0	; <UNPREDICTABLE>
    2260:	bdf00010 	ldcllt	0, cr0, [r0, #64]!	; 0x40
    2264:	af000012 	svcge	0x00000012
    2268:	1b00000d 	blne	22a4 <PHYS_OFFSET-0x7fffdd5c>
    226c:	74025001 	strvc	r5, [r2], #-1
    2270:	481a0000 	ldmdami	sl, {}	; <UNPREDICTABLE>
    2274:	88f00010 	ldmhi	r0!, {r4}^
    2278:	c6000012 			; <UNDEFINED> instruction: 0xc6000012
    227c:	1b00000d 	blne	22b8 <PHYS_OFFSET-0x7fffdd48>
    2280:	03055001 	movweq	r5, #20481	; 0x5001
    2284:	f00014fc 			; <UNDEFINED> instruction: 0xf00014fc
    2288:	10741a00 	rsbsne	r1, r4, r0, lsl #20
    228c:	1288f000 	addne	pc, r8, #0
    2290:	0ddd0000 	ldcleq	0, cr0, [sp]
    2294:	011b0000 	tsteq	fp, r0
    2298:	64030550 	strvs	r0, [r3], #-1360	; 0x550
    229c:	00f00018 	rscseq	r0, r0, r8, lsl r0
    22a0:	00107c1a 	andseq	r7, r0, sl, lsl ip
    22a4:	0012bdf0 			; <UNDEFINED> instruction: 0x0012bdf0
    22a8:	000df100 	andeq	pc, sp, r0, lsl #2
    22ac:	50011b00 	andpl	r1, r1, r0, lsl #22
    22b0:	00007402 	andeq	r7, r0, r2, lsl #8
    22b4:	0010841a 	andseq	r8, r0, sl, lsl r4
    22b8:	001288f0 			; <UNDEFINED> instruction: 0x001288f0
    22bc:	000e0800 	andeq	r0, lr, r0, lsl #16
    22c0:	50011b00 	andpl	r1, r1, r0, lsl #22
    22c4:	14fc0305 	ldrbtne	r0, [ip], #773	; 0x305
    22c8:	1a00f000 	bne	3e2d0 <PHYS_OFFSET-0x7ffc1d30>
    22cc:	f0001090 			; <UNDEFINED> instruction: 0xf0001090
    22d0:	00001288 	andeq	r1, r0, r8, lsl #5
    22d4:	00000e1f 	andeq	r0, r0, pc, lsl lr
    22d8:	0550011b 	ldrbeq	r0, [r0, #-283]	; 0x11b
    22dc:	00186c03 	andseq	r6, r8, r3, lsl #24
    22e0:	981a00f0 	ldmdals	sl, {r4, r5, r6, r7}
    22e4:	bdf00010 	ldcllt	0, cr0, [r0, #64]!	; 0x40
    22e8:	33000012 	movwcc	r0, #18
    22ec:	1b00000e 	blne	232c <PHYS_OFFSET-0x7fffdcd4>
    22f0:	74025001 	strvc	r5, [r2], #-1
    22f4:	a01a0000 	andsge	r0, sl, r0
    22f8:	88f00010 	ldmhi	r0!, {r4}^
    22fc:	4a000012 	bmi	234c <PHYS_OFFSET-0x7fffdcb4>
    2300:	1b00000e 	blne	2340 <PHYS_OFFSET-0x7fffdcc0>
    2304:	03055001 	movweq	r5, #20481	; 0x5001
    2308:	f00014fc 			; <UNDEFINED> instruction: 0xf00014fc
    230c:	10ac1a00 	adcne	r1, ip, r0, lsl #20
    2310:	1288f000 	addne	pc, r8, #0
    2314:	0e610000 	cdpeq	0, 6, cr0, cr1, cr0, {0}
    2318:	011b0000 	tsteq	fp, r0
    231c:	74030550 	strvc	r0, [r3], #-1360	; 0x550
    2320:	00f00018 	rscseq	r0, r0, r8, lsl r0
    2324:	0010b41a 	andseq	fp, r0, sl, lsl r4
    2328:	0012bdf0 			; <UNDEFINED> instruction: 0x0012bdf0
    232c:	000e7500 	andeq	r7, lr, r0, lsl #10
    2330:	50011b00 	andpl	r1, r1, r0, lsl #22
    2334:	00007402 	andeq	r7, r0, r2, lsl #8
    2338:	0010bc1a 	andseq	fp, r0, sl, lsl ip
    233c:	001288f0 			; <UNDEFINED> instruction: 0x001288f0
    2340:	000e8c00 	andeq	r8, lr, r0, lsl #24
    2344:	50011b00 	andpl	r1, r1, r0, lsl #22
    2348:	14fc0305 	ldrbtne	r0, [ip], #773	; 0x305
    234c:	1a00f000 	bne	3e354 <PHYS_OFFSET-0x7ffc1cac>
    2350:	f00010c8 			; <UNDEFINED> instruction: 0xf00010c8
    2354:	00001288 	andeq	r1, r0, r8, lsl #5
    2358:	00000ea3 	andeq	r0, r0, r3, lsr #29
    235c:	0550011b 	ldrbeq	r0, [r0, #-283]	; 0x11b
    2360:	00187c03 	andseq	r7, r8, r3, lsl #24
    2364:	d01a00f0 	ldrshle	r0, [sl], -r0	; <UNPREDICTABLE>
    2368:	bdf00010 	ldcllt	0, cr0, [r0, #64]!	; 0x40
    236c:	b7000012 	smladlt	r0, r2, r0, r0
    2370:	1b00000e 	blne	23b0 <PHYS_OFFSET-0x7fffdc50>
    2374:	74025001 	strvc	r5, [r2], #-1
    2378:	d81a0000 	ldmdale	sl, {}	; <UNPREDICTABLE>
    237c:	88f00010 	ldmhi	r0!, {r4}^
    2380:	ce000012 	mcrgt	0, 0, r0, cr0, cr2, {0}
    2384:	1b00000e 	blne	23c4 <PHYS_OFFSET-0x7fffdc3c>
    2388:	03055001 	movweq	r5, #20481	; 0x5001
    238c:	f00014fc 			; <UNDEFINED> instruction: 0xf00014fc
    2390:	10e01a00 	rscne	r1, r0, r0, lsl #20
    2394:	1288f000 	addne	pc, r8, #0
    2398:	0ee50000 	cdpeq	0, 14, cr0, cr5, cr0, {0}
    239c:	011b0000 	tsteq	fp, r0
    23a0:	84030550 	strhi	r0, [r3], #-1360	; 0x550
    23a4:	00f00018 	rscseq	r0, r0, r8, lsl r0
    23a8:	0010ec1a 	andseq	lr, r0, sl, lsl ip
    23ac:	001288f0 			; <UNDEFINED> instruction: 0x001288f0
    23b0:	000efc00 	andeq	pc, lr, r0, lsl #24
    23b4:	50011b00 	andpl	r1, r1, r0, lsl #22
    23b8:	18980305 	ldmne	r8, {r0, r2, r8, r9}
    23bc:	1a00f000 	bne	3e3c4 <PHYS_OFFSET-0x7ffc1c3c>
    23c0:	f00010f4 			; <UNDEFINED> instruction: 0xf00010f4
    23c4:	000012bd 			; <UNDEFINED> instruction: 0x000012bd
    23c8:	00000f10 	andeq	r0, r0, r0, lsl pc
    23cc:	0250011b 	subseq	r0, r0, #-1073741818	; 0xc0000006
    23d0:	1a000074 	bne	25a8 <PHYS_OFFSET-0x7fffda58>
    23d4:	f00010fc 			; <UNDEFINED> instruction: 0xf00010fc
    23d8:	00001288 	andeq	r1, r0, r8, lsl #5
    23dc:	00000f27 	andeq	r0, r0, r7, lsr #30
    23e0:	0550011b 	ldrbeq	r0, [r0, #-283]	; 0x11b
    23e4:	0014fc03 	andseq	pc, r4, r3, lsl #24
    23e8:	141a00f0 	ldrne	r0, [sl], #-240	; 0xf0
    23ec:	88f00011 	ldmhi	r0!, {r0, r4}^
    23f0:	3e000012 	mcrcc	0, 0, r0, cr0, cr2, {0}
    23f4:	1b00000f 	blne	2438 <PHYS_OFFSET-0x7fffdbc8>
    23f8:	03055001 	movweq	r5, #20481	; 0x5001
    23fc:	f0001898 			; <UNDEFINED> instruction: 0xf0001898
    2400:	111c1a00 	tstne	ip, r0, lsl #20
    2404:	12bdf000 	adcsne	pc, sp, #0
    2408:	0f520000 	svceq	0x00520000
    240c:	011b0000 	tsteq	fp, r0
    2410:	00740250 	rsbseq	r0, r4, r0, asr r2
    2414:	11241a00 	teqne	r4, r0, lsl #20
    2418:	1288f000 	addne	pc, r8, #0
    241c:	0f690000 	svceq	0x00690000
    2420:	011b0000 	tsteq	fp, r0
    2424:	fc030550 	stc2	5, cr0, [r3], {80}	; 0x50
    2428:	00f00014 	rscseq	r0, r0, r4, lsl r0
    242c:	0011301a 	andseq	r3, r1, sl, lsl r0
    2430:	001288f0 			; <UNDEFINED> instruction: 0x001288f0
    2434:	000f8000 	andeq	r8, pc, r0
    2438:	50011b00 	andpl	r1, r1, r0, lsl #22
    243c:	18a00305 	stmiane	r0!, {r0, r2, r8, r9}
    2440:	1a00f000 	bne	3e448 <PHYS_OFFSET-0x7ffc1bb8>
    2444:	f0001138 			; <UNDEFINED> instruction: 0xf0001138
    2448:	000012bd 			; <UNDEFINED> instruction: 0x000012bd
    244c:	00000f94 	muleq	r0, r4, pc	; <UNPREDICTABLE>
    2450:	0250011b 	subseq	r0, r0, #-1073741818	; 0xc0000006
    2454:	1a000074 	bne	262c <PHYS_OFFSET-0x7fffd9d4>
    2458:	f0001140 			; <UNDEFINED> instruction: 0xf0001140
    245c:	00001288 	andeq	r1, r0, r8, lsl #5
    2460:	00000fab 	andeq	r0, r0, fp, lsr #31
    2464:	0550011b 	ldrbeq	r0, [r0, #-283]	; 0x11b
    2468:	0014fc03 	andseq	pc, r4, r3, lsl #24
    246c:	581a00f0 	ldmdapl	sl, {r4, r5, r6, r7}
    2470:	88f00011 	ldmhi	r0!, {r0, r4}^
    2474:	c2000012 	andgt	r0, r0, #18
    2478:	1b00000f 	blne	24bc <PHYS_OFFSET-0x7fffdb44>
    247c:	03055001 	movweq	r5, #20481	; 0x5001
    2480:	f00018a0 			; <UNDEFINED> instruction: 0xf00018a0
    2484:	11601a00 	cmnne	r0, r0, lsl #20
    2488:	12bdf000 	adcsne	pc, sp, #0
    248c:	0fd60000 	svceq	0x00d60000
    2490:	011b0000 	tsteq	fp, r0
    2494:	00740250 	rsbseq	r0, r4, r0, asr r2
    2498:	11681a00 	cmnne	r8, r0, lsl #20
    249c:	1288f000 	addne	pc, r8, #0
    24a0:	0fed0000 	svceq	0x00ed0000
    24a4:	011b0000 	tsteq	fp, r0
    24a8:	fc030550 	stc2	5, cr0, [r3], {80}	; 0x50
    24ac:	00f00014 	rscseq	r0, r0, r4, lsl r0
    24b0:	0011741a 	andseq	r7, r1, sl, lsl r4
    24b4:	001288f0 			; <UNDEFINED> instruction: 0x001288f0
    24b8:	00100400 	andseq	r0, r0, r0, lsl #8
    24bc:	50011b00 	andpl	r1, r1, r0, lsl #22
    24c0:	18a80305 	stmiane	r8!, {r0, r2, r8, r9}
    24c4:	1c00f000 	stcne	0, cr15, [r0], {-0}
    24c8:	f0001180 			; <UNDEFINED> instruction: 0xf0001180
    24cc:	000012bd 			; <UNDEFINED> instruction: 0x000012bd
    24d0:	00118c1a 	andseq	r8, r1, sl, lsl ip
    24d4:	001288f0 			; <UNDEFINED> instruction: 0x001288f0
    24d8:	00102400 	andseq	r2, r0, r0, lsl #8
    24dc:	50011b00 	andpl	r1, r1, r0, lsl #22
    24e0:	14fc0305 	ldrbtne	r0, [ip], #773	; 0x305
    24e4:	1a00f000 	bne	3e4ec <PHYS_OFFSET-0x7ffc1b14>
    24e8:	f000119c 			; <UNDEFINED> instruction: 0xf000119c
    24ec:	00001288 	andeq	r1, r0, r8, lsl #5
    24f0:	0000103b 	andeq	r1, r0, fp, lsr r0
    24f4:	0550011b 	ldrbeq	r0, [r0, #-283]	; 0x11b
    24f8:	0018a803 	andseq	sl, r8, r3, lsl #16
    24fc:	a41a00f0 	ldrge	r0, [sl], #-240	; 0xf0
    2500:	bdf00011 	ldcllt	0, cr0, [r0, #68]!	; 0x44
    2504:	4f000012 	svcmi	0x00000012
    2508:	1b000010 	blne	2550 <PHYS_OFFSET-0x7fffdab0>
    250c:	74025001 	strvc	r5, [r2], #-1
    2510:	ac1a0000 	ldcge	0, cr0, [sl], {-0}
    2514:	88f00011 	ldmhi	r0!, {r0, r4}^
    2518:	66000012 			; <UNDEFINED> instruction: 0x66000012
    251c:	1b000010 	blne	2564 <PHYS_OFFSET-0x7fffda9c>
    2520:	03055001 	movweq	r5, #20481	; 0x5001
    2524:	f00014fc 			; <UNDEFINED> instruction: 0xf00014fc
    2528:	11ec1a00 	mvnne	r1, r0, lsl #20
    252c:	1288f000 	addne	pc, r8, #0
    2530:	107d0000 	rsbsne	r0, sp, r0
    2534:	011b0000 	tsteq	fp, r0
    2538:	a4030550 	strge	r0, [r3], #-1360	; 0x550
    253c:	00f00017 	rscseq	r0, r0, r7, lsl r0
    2540:	0011f81c 	andseq	pc, r1, ip, lsl r8	; <UNPREDICTABLE>
    2544:	0012a9f0 			; <UNDEFINED> instruction: 0x0012a9f0
    2548:	12001a00 	andne	r1, r0, #0
    254c:	1288f000 	addne	pc, r8, #0
    2550:	109d0000 	addsne	r0, sp, r0
    2554:	011b0000 	tsteq	fp, r0
    2558:	fc030550 	stc2	5, cr0, [r3], {80}	; 0x50
    255c:	00f00014 	rscseq	r0, r0, r4, lsl r0
    2560:	00120c1a 	andseq	r0, r2, sl, lsl ip
    2564:	001288f0 			; <UNDEFINED> instruction: 0x001288f0
    2568:	0010b400 	andseq	fp, r0, r0, lsl #8
    256c:	50011b00 	andpl	r1, r1, r0, lsl #22
    2570:	18c00305 	stmiane	r0, {r0, r2, r8, r9}^
    2574:	1a00f000 	bne	3e57c <PHYS_OFFSET-0x7ffc1a84>
    2578:	f0001214 			; <UNDEFINED> instruction: 0xf0001214
    257c:	000012bd 			; <UNDEFINED> instruction: 0x000012bd
    2580:	000010c8 	andeq	r1, r0, r8, asr #1
    2584:	0250011b 	subseq	r0, r0, #-1073741818	; 0xc0000006
    2588:	1a000075 	bne	2764 <PHYS_OFFSET-0x7fffd89c>
    258c:	f000121c 			; <UNDEFINED> instruction: 0xf000121c
    2590:	00001288 	andeq	r1, r0, r8, lsl #5
    2594:	000010df 	ldrdeq	r1, [r0], -pc	; <UNPREDICTABLE>
    2598:	0550011b 	ldrbeq	r0, [r0, #-283]	; 0x11b
    259c:	0014fc03 	andseq	pc, r4, r3, lsl #24
    25a0:	381a00f0 	ldmdacc	sl, {r4, r5, r6, r7}
    25a4:	88f00012 	ldmhi	r0!, {r1, r4}^
    25a8:	f6000012 			; <UNDEFINED> instruction: 0xf6000012
    25ac:	1b000010 	blne	25f4 <PHYS_OFFSET-0x7fffda0c>
    25b0:	03055001 	movweq	r5, #20481	; 0x5001
    25b4:	f00018d0 			; <UNDEFINED> instruction: 0xf00018d0
    25b8:	12441c00 	subne	r1, r4, #0
    25bc:	12a9f000 	adcne	pc, r9, #0
    25c0:	541a0000 	ldrpl	r0, [sl], #-0
    25c4:	88f00012 	ldmhi	r0!, {r1, r4}^
    25c8:	16000012 			; <UNDEFINED> instruction: 0x16000012
    25cc:	1b000011 	blne	2618 <PHYS_OFFSET-0x7fffd9e8>
    25d0:	03055001 	movweq	r5, #20481	; 0x5001
    25d4:	f00014fc 			; <UNDEFINED> instruction: 0xf00014fc
    25d8:	127c1a00 	rsbsne	r1, ip, #0
    25dc:	1288f000 	addne	pc, r8, #0
    25e0:	112d0000 	teqne	sp, r0
    25e4:	011b0000 	tsteq	fp, r0
    25e8:	c8030550 	stmdagt	r3, {r4, r6, r8, sl}
    25ec:	00f00018 	rscseq	r0, r0, r8, lsl r0
    25f0:	0012881c 	andseq	r8, r2, ip, lsl r8
    25f4:	0012a9f0 			; <UNDEFINED> instruction: 0x0012a9f0
    25f8:	12901a00 	addsne	r1, r0, #0
    25fc:	1288f000 	addne	pc, r8, #0
    2600:	114d0000 	mrsne	r0, (UNDEF: 77)
    2604:	011b0000 	tsteq	fp, r0
    2608:	fc030550 	stc2	5, cr0, [r3], {80}	; 0x50
    260c:	00f00014 	rscseq	r0, r0, r4, lsl r0
    2610:	0012c01a 	andseq	ip, r2, sl, lsl r0
    2614:	001288f0 			; <UNDEFINED> instruction: 0x001288f0
    2618:	00116400 	andseq	r6, r1, r0, lsl #8
    261c:	50011b00 	andpl	r1, r1, r0, lsl #22
    2620:	18d80305 	ldmne	r8, {r0, r2, r8, r9}^
    2624:	1c00f000 	stcne	0, cr15, [r0], {-0}
    2628:	f00012cc 			; <UNDEFINED> instruction: 0xf00012cc
    262c:	000012a9 	andeq	r1, r0, r9, lsr #5
    2630:	0012d41a 	andseq	sp, r2, sl, lsl r4
    2634:	001288f0 			; <UNDEFINED> instruction: 0x001288f0
    2638:	00118400 	andseq	r8, r1, r0, lsl #8
    263c:	50011b00 	andpl	r1, r1, r0, lsl #22
    2640:	14fc0305 	ldrbtne	r0, [ip], #773	; 0x305
    2644:	1a00f000 	bne	3e64c <PHYS_OFFSET-0x7ffc19b4>
    2648:	f00012e0 			; <UNDEFINED> instruction: 0xf00012e0
    264c:	00001288 	andeq	r1, r0, r8, lsl #5
    2650:	0000119b 	muleq	r0, fp, r1
    2654:	0550011b 	ldrbeq	r0, [r0, #-283]	; 0x11b
    2658:	0018a003 	andseq	sl, r8, r3
    265c:	e81a00f0 	ldmda	sl, {r4, r5, r6, r7}
    2660:	bdf00012 	ldcllt	0, cr0, [r0, #72]!	; 0x48
    2664:	af000012 	svcge	0x00000012
    2668:	1b000011 	blne	26b4 <PHYS_OFFSET-0x7fffd94c>
    266c:	74025001 	strvc	r5, [r2], #-1
    2670:	f01a0000 			; <UNDEFINED> instruction: 0xf01a0000
    2674:	88f00012 	ldmhi	r0!, {r1, r4}^
    2678:	c6000012 			; <UNDEFINED> instruction: 0xc6000012
    267c:	1b000011 	blne	26c8 <PHYS_OFFSET-0x7fffd938>
    2680:	03055001 	movweq	r5, #20481	; 0x5001
    2684:	f00014fc 			; <UNDEFINED> instruction: 0xf00014fc
    2688:	130c1a00 	movwne	r1, #51712	; 0xca00
    268c:	1288f000 	addne	pc, r8, #0
    2690:	11dd0000 	bicsne	r0, sp, r0
    2694:	011b0000 	tsteq	fp, r0
    2698:	a0030550 	andge	r0, r3, r0, asr r5
    269c:	00f00018 	rscseq	r0, r0, r8, lsl r0
    26a0:	0013141a 	andseq	r1, r3, sl, lsl r4
    26a4:	0012bdf0 			; <UNDEFINED> instruction: 0x0012bdf0
    26a8:	0011f100 	andseq	pc, r1, r0, lsl #2
    26ac:	50011b00 	andpl	r1, r1, r0, lsl #22
    26b0:	00007402 	andeq	r7, r0, r2, lsl #8
    26b4:	00131c1a 	andseq	r1, r3, sl, lsl ip
    26b8:	001288f0 			; <UNDEFINED> instruction: 0x001288f0
    26bc:	00120800 	andseq	r0, r2, r0, lsl #16
    26c0:	50011b00 	andpl	r1, r1, r0, lsl #22
    26c4:	14fc0305 	ldrbtne	r0, [ip], #773	; 0x305
    26c8:	1f00f000 	svcne	0x0000f000
    26cc:	f0001324 			; <UNDEFINED> instruction: 0xf0001324
    26d0:	00001288 	andeq	r1, r0, r8, lsl #5
    26d4:	0550011b 	ldrbeq	r0, [r0, #-283]	; 0x11b
    26d8:	0018ec03 	andseq	lr, r8, r3, lsl #24
    26dc:	290000f0 	stmdbcs	r0, {r4, r5, r6, r7}
    26e0:	0000037f 	andeq	r0, r0, pc, ror r3
    26e4:	0000122d 	andeq	r1, r0, sp, lsr #4
    26e8:	00122d2a 	andseq	r2, r2, sl, lsr #26
    26ec:	0001ff00 	andeq	pc, r1, r0, lsl #30
    26f0:	fc070402 	stc2	4, cr0, [r7], {2}
    26f4:	1e000002 	cdpne	0, 0, cr0, cr0, cr2, {0}
    26f8:	0000046e 	andeq	r0, r0, lr, ror #8
    26fc:	121c7801 	andsne	r7, ip, #65536	; 0x10000
    2700:	03050000 	movweq	r0, #20480	; 0x5000
    2704:	f0006000 			; <UNDEFINED> instruction: 0xf0006000
    2708:	0004c31e 	andeq	ip, r4, lr, lsl r3
    270c:	1c7b0100 	ldfnee	f0, [fp], #-0
    2710:	05000012 	streq	r0, [r0, #-18]
    2714:	00400003 	subeq	r0, r0, r3
    2718:	04e11ef0 	strbteq	r1, [r1], #3824	; 0xef0
    271c:	7c010000 	stcvc	0, cr0, [r1], {-0}
    2720:	0000121c 	andeq	r1, r0, ip, lsl r2
    2724:	50000305 	andpl	r0, r0, r5, lsl #6
    2728:	f029f000 			; <UNDEFINED> instruction: 0xf029f000
    272c:	77000003 	strvc	r0, [r0, -r3]
    2730:	2b000012 	blcs	2780 <PHYS_OFFSET-0x7fffd880>
    2734:	0000122d 	andeq	r1, r0, sp, lsr #4
    2738:	af1e0001 	svcge	0x001e0001
    273c:	01000001 	tsteq	r0, r1
    2740:	0012677d 	andseq	r6, r2, sp, ror r7
    2744:	00030500 	andeq	r0, r3, r0, lsl #10
    2748:	2cf00030 	ldclcs	0, cr0, [r0], #192	; 0xc0
    274c:	00007301 	andeq	r7, r0, r1, lsl #6
    2750:	01060600 	tsteq	r6, r0, lsl #12
    2754:	00129c01 	andseq	r9, r2, r1, lsl #24
    2758:	129c2d00 	addsne	r2, ip, #0
    275c:	12000000 	andne	r0, r0, #0
    2760:	0012a204 	andseq	sl, r2, r4, lsl #4
    2764:	08010200 	stmdaeq	r1, {r9}
    2768:	00000066 	andeq	r0, r0, r6, rrx
    276c:	040e012c 	streq	r0, [lr], #-300	; 0x12c
    2770:	08060000 	stmdaeq	r6, {}	; <UNPREDICTABLE>
    2774:	12bd0101 	adcsne	r0, sp, #1073741824	; 0x40000000
    2778:	5e2d0000 	cdppl	0, 2, cr0, cr13, cr0, {0}
    277c:	00000000 	andeq	r0, r0, r0
    2780:	0035012e 	eorseq	r0, r5, lr, lsr #2
    2784:	07060000 	streq	r0, [r6, -r0]
    2788:	572d0101 	strpl	r0, [sp, -r1, lsl #2]!
    278c:	00000000 	andeq	r0, r0, r0
    2790:	00005b00 	andeq	r5, r0, r0, lsl #22
    2794:	a5000200 	strge	r0, [r0, #-512]	; 0x200
    2798:	04000009 	streq	r0, [r0], #-9
    279c:	00000a01 	andeq	r0, r0, r1, lsl #20
    27a0:	05030100 	streq	r0, [r3, #-256]	; 0x100
    27a4:	009f0000 	addseq	r0, pc, r0
    27a8:	137c0000 	cmnne	ip, #0
    27ac:	1384f000 	orrne	pc, r4, #0
    27b0:	067cf000 	ldrbteq	pc, [ip], -r0	; <UNPREDICTABLE>
    27b4:	04020000 	streq	r0, [r2], #-0
    27b8:	003a0402 	eorseq	r0, sl, r2, lsl #8
    27bc:	1e030000 	cdpne	0, 0, cr0, cr3, cr0, {0}
    27c0:	00000002 	andeq	r0, r0, r2
    27c4:	00037203 	andeq	r7, r3, r3, lsl #4
    27c8:	04007f00 	streq	r7, [r0], #-3840	; 0xf00
    27cc:	000002c4 	andeq	r0, r0, r4, asr #5
    27d0:	00250702 	eoreq	r0, r5, r2, lsl #14
    27d4:	01050000 	mrseq	r0, (UNDEF: 5)
    27d8:	000004f8 	strdeq	r0, [r0], -r8
    27dc:	3a010901 	bcc	44be8 <PHYS_OFFSET-0x7ffbb418>
    27e0:	7c000000 	stcvc	0, cr0, [r0], {-0}
    27e4:	84f00013 	ldrbthi	r0, [r0], #19
    27e8:	02f00013 	rscseq	r0, r0, #19
    27ec:	0001007d 	andeq	r0, r1, sp, ror r0
    27f0:	00000447 	andeq	r0, r0, r7, asr #8
    27f4:	09f60002 	ldmibeq	r6!, {r1}^
    27f8:	01040000 	mrseq	r0, (UNDEF: 4)
    27fc:	0000000a 	andeq	r0, r0, sl
    2800:	00050b01 	andeq	r0, r5, r1, lsl #22
    2804:	00009f00 	andeq	r9, r0, r0, lsl #30
    2808:	00138400 	andseq	r8, r3, r0, lsl #8
    280c:	0014e4f0 			; <UNDEFINED> instruction: 0x0014e4f0
    2810:	0006c4f0 	strdeq	ip, [r6], -r0
    2814:	02040200 	andeq	r0, r4, #0
    2818:	00003a04 	andeq	r3, r0, r4, lsl #20
    281c:	021e0300 	andseq	r0, lr, #0
    2820:	03000000 	movweq	r0, #0
    2824:	00000372 	andeq	r0, r0, r2, ror r3
    2828:	c404007f 	strgt	r0, [r4], #-127	; 0x7f
    282c:	02000002 	andeq	r0, r0, #2
    2830:	00002507 	andeq	r2, r0, r7, lsl #10
    2834:	03950400 	orrseq	r0, r5, #0
    2838:	04030000 	streq	r0, [r3], #-0
    283c:	00000050 	andeq	r0, r0, r0, asr r0
    2840:	50070405 	andpl	r0, r7, r5, lsl #8
    2844:	05000000 	streq	r0, [r0, #-0]
    2848:	00460708 	subeq	r0, r6, r8, lsl #14
    284c:	01050000 	mrseq	r0, (UNDEF: 5)
    2850:	00005d08 	andeq	r5, r0, r8, lsl #26
    2854:	22010600 	andcs	r0, r1, #0
    2858:	01000005 	tsteq	r0, r5
    285c:	13840113 	orrne	r0, r4, #-1073741820	; 0xc0000004
    2860:	14d4f000 	ldrbne	pc, [r4], #0	; <UNPREDICTABLE>
    2864:	0e92f000 	cdpeq	0, 9, cr15, cr2, cr0, {0}
    2868:	f3010000 	vhadd.u8	d0, d1, d0
    286c:	07000003 	streq	r0, [r0, -r3]
    2870:	0000054d 	andeq	r0, r0, sp, asr #10
    2874:	00452601 	subeq	r2, r5, r1, lsl #12
    2878:	0eb20000 	cdpeq	0, 11, cr0, cr2, cr0, {0}
    287c:	61070000 	mrsvs	r0, (UNDEF: 7)
    2880:	01000005 	tsteq	r0, r5
    2884:	00004527 	andeq	r4, r0, r7, lsr #10
    2888:	000ec500 	andeq	ip, lr, r0, lsl #10
    288c:	053d0800 	ldreq	r0, [sp, #-2048]!	; 0x800
    2890:	28010000 	stmdacs	r1, {}	; <UNPREDICTABLE>
    2894:	000003f3 	strdeq	r0, [r0], -r3
    2898:	1a075501 	bne	1d7ca4 <PHYS_OFFSET-0x7fe2835c>
    289c:	01000005 	tsteq	r0, r5
    28a0:	0003f329 	andeq	pc, r3, r9, lsr #6
    28a4:	000ee600 	andeq	lr, lr, r0, lsl #12
    28a8:	05350700 	ldreq	r0, [r5, #-1792]!	; 0x700
    28ac:	2a010000 	bcs	428b4 <PHYS_OFFSET-0x7ffbd74c>
    28b0:	000003f3 	strdeq	r0, [r0], -r3
    28b4:	00000f25 	andeq	r0, r0, r5, lsr #30
    28b8:	00054507 	andeq	r4, r5, r7, lsl #10
    28bc:	f32b0100 	vrhadd.u32	d0, d11, d0
    28c0:	65000003 	strvs	r0, [r0, #-3]
    28c4:	0700000f 	streq	r0, [r0, -pc]
    28c8:	00000558 	andeq	r0, r0, r8, asr r5
    28cc:	03f32c01 	mvnseq	r2, #256	; 0x100
    28d0:	0fa50000 	svceq	0x00a50000
    28d4:	01090000 	mrseq	r0, (UNDEF: 9)
    28d8:	00000073 	andeq	r0, r0, r3, ror r0
    28dc:	03f92f01 	mvnseq	r2, #4
    28e0:	f9010000 			; <UNDEFINED> instruction: 0xf9010000
    28e4:	0a000000 	beq	28ec <PHYS_OFFSET-0x7fffd714>
    28e8:	35010900 	strcc	r0, [r1, #-2304]	; 0x900
    28ec:	01000000 	mrseq	r0, (UNDEF: 0)
    28f0:	0003f92f 	andeq	pc, r3, pc, lsr #18
    28f4:	010c0100 	mrseq	r0, (UNDEF: 28)
    28f8:	000a0000 	andeq	r0, sl, r0
    28fc:	0013880b 	andseq	r8, r3, fp, lsl #16
    2900:	00138cf0 			; <UNDEFINED> instruction: 0x00138cf0
    2904:	000129f0 	strdeq	r2, [r1], -r0
    2908:	009a0700 	addseq	r0, sl, r0, lsl #14
    290c:	2e010000 	cdpcs	0, 0, cr0, cr1, cr0, {0}
    2910:	00000045 	andeq	r0, r0, r5, asr #32
    2914:	00000eb2 			; <UNDEFINED> instruction: 0x00000eb2
    2918:	01080c00 	tsteq	r8, r0, lsl #24
    291c:	03b40000 			; <UNDEFINED> instruction: 0x03b40000
    2920:	52080000 	andpl	r0, r8, #0
    2924:	01000005 	tsteq	r0, r5
    2928:	00004532 	andeq	r4, r0, r2, lsr r5
    292c:	0b540100 	bleq	1502d34 <PHYS_OFFSET-0x7eafd2cc>
    2930:	f00013b8 			; <UNDEFINED> instruction: 0xf00013b8
    2934:	f00013bc 			; <UNDEFINED> instruction: 0xf00013bc
    2938:	0000015c 	andeq	r0, r0, ip, asr r1
    293c:	00009a07 	andeq	r9, r0, r7, lsl #20
    2940:	45330100 	ldrmi	r0, [r3, #-256]!	; 0x100
    2944:	c5000000 	strgt	r0, [r0, #-0]
    2948:	0000000e 	andeq	r0, r0, lr
    294c:	0013c80d 	andseq	ip, r3, sp, lsl #16
    2950:	000428f0 	strdeq	r2, [r4], -r0
    2954:	00017300 	andeq	r7, r1, r0, lsl #6
    2958:	50010e00 	andpl	r0, r1, r0, lsl #28
    295c:	190c0305 	stmdbne	ip, {r0, r2, r8, r9}
    2960:	0d00f000 	stceq	0, cr15, [r0, #-0]
    2964:	f00013d0 			; <UNDEFINED> instruction: 0xf00013d0
    2968:	0000043b 	andeq	r0, r0, fp, lsr r4
    296c:	00000187 	andeq	r0, r0, r7, lsl #3
    2970:	0250010e 	subseq	r0, r0, #-2147483645	; 0x80000003
    2974:	0d000074 	stceq	0, cr0, [r0, #-464]	; 0xfffffe30
    2978:	f00013d8 			; <UNDEFINED> instruction: 0xf00013d8
    297c:	00000428 	andeq	r0, r0, r8, lsr #8
    2980:	0000019e 	muleq	r0, lr, r1
    2984:	0550010e 	ldrbeq	r0, [r0, #-270]	; 0x10e
    2988:	0014fc03 	andseq	pc, r4, r3, lsl #24
    298c:	e00d00f0 	strd	r0, [sp], -r0	; <UNPREDICTABLE>
    2990:	28f00013 	ldmcs	r0!, {r0, r1, r4}^
    2994:	b5000004 	strlt	r0, [r0, #-4]
    2998:	0e000001 	cdpeq	0, 0, cr0, cr0, cr1, {0}
    299c:	03055001 	movweq	r5, #20481	; 0x5001
    29a0:	f0001914 			; <UNDEFINED> instruction: 0xf0001914
    29a4:	13e80d00 	mvnne	r0, #0
    29a8:	043bf000 	ldrteq	pc, [fp], #-0	; <UNPREDICTABLE>
    29ac:	01c90000 	biceq	r0, r9, r0
    29b0:	010e0000 	mrseq	r0, (UNDEF: 14)
    29b4:	00750250 	rsbseq	r0, r5, r0, asr r2
    29b8:	13f00d00 	mvnsne	r0, #0
    29bc:	0428f000 	strteq	pc, [r8], #-0
    29c0:	01e00000 	mvneq	r0, r0
    29c4:	010e0000 	mrseq	r0, (UNDEF: 14)
    29c8:	fc030550 	stc2	5, cr0, [r3], {80}	; 0x50
    29cc:	00f00014 	rscseq	r0, r0, r4, lsl r0
    29d0:	0013f80d 	andseq	pc, r3, sp, lsl #16
    29d4:	000428f0 	strdeq	r2, [r4], -r0
    29d8:	0001f700 	andeq	pc, r1, r0, lsl #14
    29dc:	50010e00 	andpl	r0, r1, r0, lsl #28
    29e0:	19200305 	stmdbne	r0!, {r0, r2, r8, r9}
    29e4:	0d00f000 	stceq	0, cr15, [r0, #-0]
    29e8:	f0001400 			; <UNDEFINED> instruction: 0xf0001400
    29ec:	0000043b 	andeq	r0, r0, fp, lsr r4
    29f0:	0000020d 	andeq	r0, r0, sp, lsl #4
    29f4:	0450010e 	ldrbeq	r0, [r0], #-270	; 0x10e
    29f8:	00c08074 	sbceq	r8, r0, r4, ror r0
    29fc:	14080d00 	strne	r0, [r8], #-3328	; 0xd00
    2a00:	0428f000 	strteq	pc, [r8], #-0
    2a04:	02240000 	eoreq	r0, r4, #0
    2a08:	010e0000 	mrseq	r0, (UNDEF: 14)
    2a0c:	fc030550 	stc2	5, cr0, [r3], {80}	; 0x50
    2a10:	00f00014 	rscseq	r0, r0, r4, lsl r0
    2a14:	0014100d 	andseq	r1, r4, sp
    2a18:	000428f0 	strdeq	r2, [r4], -r0
    2a1c:	00023b00 	andeq	r3, r2, r0, lsl #22
    2a20:	50010e00 	andpl	r0, r1, r0, lsl #28
    2a24:	192c0305 	stmdbne	ip!, {r0, r2, r8, r9}
    2a28:	0d00f000 	stceq	0, cr15, [r0, #-0]
    2a2c:	f0001418 			; <UNDEFINED> instruction: 0xf0001418
    2a30:	0000043b 	andeq	r0, r0, fp, lsr r4
    2a34:	00000251 	andeq	r0, r0, r1, asr r2
    2a38:	0450010e 	ldrbeq	r0, [r0], #-270	; 0x10e
    2a3c:	01808074 	orreq	r8, r0, r4, ror r0
    2a40:	14200d00 	strtne	r0, [r0], #-3328	; 0xd00
    2a44:	0428f000 	strteq	pc, [r8], #-0
    2a48:	02680000 	rsbeq	r0, r8, #0
    2a4c:	010e0000 	mrseq	r0, (UNDEF: 14)
    2a50:	fc030550 	stc2	5, cr0, [r3], {80}	; 0x50
    2a54:	00f00014 	rscseq	r0, r0, r4, lsl r0
    2a58:	0014280d 	andseq	r2, r4, sp, lsl #16
    2a5c:	000428f0 	strdeq	r2, [r4], -r0
    2a60:	00027f00 	andeq	r7, r2, r0, lsl #30
    2a64:	50010e00 	andpl	r0, r1, r0, lsl #28
    2a68:	19380305 	ldmdbne	r8!, {r0, r2, r8, r9}
    2a6c:	0d00f000 	stceq	0, cr15, [r0, #-0]
    2a70:	f0001430 			; <UNDEFINED> instruction: 0xf0001430
    2a74:	0000043b 	andeq	r0, r0, fp, lsr r4
    2a78:	00000295 	muleq	r0, r5, r2
    2a7c:	0450010e 	ldrbeq	r0, [r0], #-270	; 0x10e
    2a80:	01a08074 	roreq	r8, r4, r0
    2a84:	14380d00 	ldrtne	r0, [r8], #-3328	; 0xd00
    2a88:	0428f000 	strteq	pc, [r8], #-0
    2a8c:	02ac0000 	adceq	r0, ip, #0
    2a90:	010e0000 	mrseq	r0, (UNDEF: 14)
    2a94:	fc030550 	stc2	5, cr0, [r3], {80}	; 0x50
    2a98:	00f00014 	rscseq	r0, r0, r4, lsl r0
    2a9c:	0014400d 	andseq	r4, r4, sp
    2aa0:	000428f0 	strdeq	r2, [r4], -r0
    2aa4:	0002c300 	andeq	ip, r2, r0, lsl #6
    2aa8:	50010e00 	andpl	r0, r1, r0, lsl #28
    2aac:	19440305 	stmdbne	r4, {r0, r2, r8, r9}^
    2ab0:	0d00f000 	stceq	0, cr15, [r0, #-0]
    2ab4:	f0001448 			; <UNDEFINED> instruction: 0xf0001448
    2ab8:	0000043b 	andeq	r0, r0, fp, lsr r4
    2abc:	000002d9 	ldrdeq	r0, [r0], -r9
    2ac0:	0450010e 	ldrbeq	r0, [r0], #-270	; 0x10e
    2ac4:	01c08074 	biceq	r8, r0, r4, ror r0
    2ac8:	14500d00 	ldrbne	r0, [r0], #-3328	; 0xd00
    2acc:	0428f000 	strteq	pc, [r8], #-0
    2ad0:	02f00000 	rscseq	r0, r0, #0
    2ad4:	010e0000 	mrseq	r0, (UNDEF: 14)
    2ad8:	fc030550 	stc2	5, cr0, [r3], {80}	; 0x50
    2adc:	00f00014 	rscseq	r0, r0, r4, lsl r0
    2ae0:	00145c0d 	andseq	r5, r4, sp, lsl #24
    2ae4:	000428f0 	strdeq	r2, [r4], -r0
    2ae8:	00030700 	andeq	r0, r3, r0, lsl #14
    2aec:	50010e00 	andpl	r0, r1, r0, lsl #28
    2af0:	19500305 	ldmdbne	r0, {r0, r2, r8, r9}^
    2af4:	0d00f000 	stceq	0, cr15, [r0, #-0]
    2af8:	f0001464 			; <UNDEFINED> instruction: 0xf0001464
    2afc:	0000043b 	andeq	r0, r0, fp, lsr r4
    2b00:	0000031b 	andeq	r0, r0, fp, lsl r3
    2b04:	0250010e 	subseq	r0, r0, #-2147483645	; 0x80000003
    2b08:	0d000074 	stceq	0, cr0, [r0, #-464]	; 0xfffffe30
    2b0c:	f000146c 			; <UNDEFINED> instruction: 0xf000146c
    2b10:	00000428 	andeq	r0, r0, r8, lsr #8
    2b14:	00000332 	andeq	r0, r0, r2, lsr r3
    2b18:	0550010e 	ldrbeq	r0, [r0, #-270]	; 0x10e
    2b1c:	0014fc03 	andseq	pc, r4, r3, lsl #24
    2b20:	780d00f0 	stmdavc	sp, {r4, r5, r6, r7}
    2b24:	28f00014 	ldmcs	r0!, {r2, r4}^
    2b28:	49000004 	stmdbmi	r0, {r2}
    2b2c:	0e000003 	cdpeq	0, 0, cr0, cr0, cr3, {0}
    2b30:	03055001 	movweq	r5, #20481	; 0x5001
    2b34:	f000195c 			; <UNDEFINED> instruction: 0xf000195c
    2b38:	14800d00 	strne	r0, [r0], #3328	; 0xd00
    2b3c:	043bf000 	ldrteq	pc, [fp], #-0	; <UNPREDICTABLE>
    2b40:	035d0000 	cmpeq	sp, #0
    2b44:	010e0000 	mrseq	r0, (UNDEF: 14)
    2b48:	00740250 	rsbseq	r0, r4, r0, asr r2
    2b4c:	14880d00 	strne	r0, [r8], #3328	; 0xd00
    2b50:	0428f000 	strteq	pc, [r8], #-0
    2b54:	03740000 	cmneq	r4, #0
    2b58:	010e0000 	mrseq	r0, (UNDEF: 14)
    2b5c:	fc030550 	stc2	5, cr0, [r3], {80}	; 0x50
    2b60:	00f00014 	rscseq	r0, r0, r4, lsl r0
    2b64:	0014940d 	andseq	r9, r4, sp, lsl #8
    2b68:	000428f0 	strdeq	r2, [r4], -r0
    2b6c:	00038b00 	andeq	r8, r3, r0, lsl #22
    2b70:	50010e00 	andpl	r0, r1, r0, lsl #28
    2b74:	19680305 	stmdbne	r8!, {r0, r2, r8, r9}^
    2b78:	0d00f000 	stceq	0, cr15, [r0, #-0]
    2b7c:	f000149c 			; <UNDEFINED> instruction: 0xf000149c
    2b80:	0000043b 	andeq	r0, r0, fp, lsr r4
    2b84:	0000039f 	muleq	r0, pc, r3	; <UNPREDICTABLE>
    2b88:	0250010e 	subseq	r0, r0, #-2147483645	; 0x80000003
    2b8c:	0f000074 	svceq	0x00000074
    2b90:	f00014a8 			; <UNDEFINED> instruction: 0xf00014a8
    2b94:	00042801 	andeq	r2, r4, r1, lsl #16
    2b98:	50010e00 	andpl	r0, r1, r0, lsl #28
    2b9c:	14fc0305 	ldrbtne	r0, [ip], #773	; 0x305
    2ba0:	0000f000 	andeq	pc, r0, r0
    2ba4:	0013940d 	andseq	r9, r3, sp, lsl #8
    2ba8:	000428f0 	strdeq	r2, [r4], -r0
    2bac:	0003cb00 	andeq	ip, r3, r0, lsl #22
    2bb0:	50010e00 	andpl	r0, r1, r0, lsl #28
    2bb4:	19040305 	stmdbne	r4, {r0, r2, r8, r9}
    2bb8:	0d00f000 	stceq	0, cr15, [r0, #-0]
    2bbc:	f000139c 			; <UNDEFINED> instruction: 0xf000139c
    2bc0:	0000043b 	andeq	r0, r0, fp, lsr r4
    2bc4:	000003df 	ldrdeq	r0, [r0], -pc	; <UNPREDICTABLE>
    2bc8:	0250010e 	subseq	r0, r0, #-2147483645	; 0x80000003
    2bcc:	10000074 	andne	r0, r0, r4, ror r0
    2bd0:	f00013a4 			; <UNDEFINED> instruction: 0xf00013a4
    2bd4:	00000428 	andeq	r0, r0, r8, lsr #8
    2bd8:	0550010e 	ldrbeq	r0, [r0, #-270]	; 0x10e
    2bdc:	0014fc03 	andseq	pc, r4, r3, lsl #24
    2be0:	110000f0 	strdne	r0, [r0, -r0]
    2be4:	00004504 	andeq	r4, r0, r4, lsl #10
    2be8:	05041200 	streq	r1, [r4, #-512]	; 0x200
    2bec:	00746e69 	rsbseq	r6, r4, r9, ror #28
    2bf0:	05110113 	ldreq	r0, [r1, #-275]	; 0x113
    2bf4:	45010000 	strmi	r0, [r1, #-0]
    2bf8:	00003a01 	andeq	r3, r0, r1, lsl #20
    2bfc:	0014d400 	andseq	sp, r4, r0, lsl #8
    2c00:	0014e4f0 			; <UNDEFINED> instruction: 0x0014e4f0
    2c04:	000fe5f0 	strdeq	lr, [pc], -r0
    2c08:	04280100 	strteq	r0, [r8], #-256	; 0x100
    2c0c:	dc140000 	ldcle	0, cr0, [r4], {-0}
    2c10:	65f00014 	ldrbvs	r0, [r0, #20]!
    2c14:	00000000 	andeq	r0, r0, r0
    2c18:	00730109 	rsbseq	r0, r3, r9, lsl #2
    2c1c:	2f010000 	svccs	0x00010000
    2c20:	000003f9 	strdeq	r0, [r0], -r9
    2c24:	00043b01 	andeq	r3, r4, r1, lsl #22
    2c28:	15000a00 	strne	r0, [r0, #-2560]	; 0xa00
    2c2c:	00003501 	andeq	r3, r0, r1, lsl #10
    2c30:	f92f0100 			; <UNDEFINED> instruction: 0xf92f0100
    2c34:	01000003 	tsteq	r0, r3
    2c38:	8400000a 	strhi	r0, [r0], #-10
    2c3c:	02000000 	andeq	r0, r0, #0
    2c40:	000b1a00 	andeq	r1, fp, r0, lsl #20
    2c44:	0a010400 	beq	43c4c <PHYS_OFFSET-0x7ffbc3b4>
    2c48:	01000000 	mrseq	r0, (UNDEF: 0)
    2c4c:	0000056a 	andeq	r0, r0, sl, ror #10
    2c50:	0000009f 	muleq	r0, pc, r0	; <UNPREDICTABLE>
    2c54:	f00014e4 			; <UNDEFINED> instruction: 0xf00014e4
    2c58:	f00014e8 			; <UNDEFINED> instruction: 0xf00014e8
    2c5c:	00000730 	andeq	r0, r0, r0, lsr r7
    2c60:	04020402 	streq	r0, [r2], #-1026	; 0x402
    2c64:	0000003a 	andeq	r0, r0, sl, lsr r0
    2c68:	00021e03 	andeq	r1, r2, r3, lsl #28
    2c6c:	72030000 	andvc	r0, r3, #0
    2c70:	7f000003 	svcvc	0x00000003
    2c74:	02c40400 	sbceq	r0, r4, #0
    2c78:	07020000 	streq	r0, [r2, -r0]
    2c7c:	00000025 	andeq	r0, r0, r5, lsr #32
    2c80:	02570105 	subseq	r0, r7, #1073741825	; 0x40000001
    2c84:	04010000 	streq	r0, [r1], #-0
    2c88:	00003a01 	andeq	r3, r0, r1, lsl #20
    2c8c:	0014e400 	andseq	lr, r4, r0, lsl #8
    2c90:	0014e8f0 			; <UNDEFINED> instruction: 0x0014e8f0
    2c94:	007d02f0 	ldrshteq	r0, [sp], #-32	; 0xffffffe0
    2c98:	00007901 	andeq	r7, r0, r1, lsl #18
    2c9c:	65720600 	ldrbvs	r0, [r2, #-1536]!	; 0x600
    2ca0:	06010074 			; <UNDEFINED> instruction: 0x06010074
    2ca4:	0000003a 	andeq	r0, r0, sl, lsr r0
    2ca8:	14e8077f 	strbtne	r0, [r8], #1919	; 0x77f
    2cac:	7901f000 	stmdbvc	r1, {ip, sp, lr, pc}
    2cb0:	00000000 	andeq	r0, r0, r0
    2cb4:	05110108 	ldreq	r0, [r1, #-264]	; 0x108
    2cb8:	06030000 	streq	r0, [r3], -r0
    2cbc:	00003a01 	andeq	r3, r0, r1, lsl #20
    2cc0:	Address 0x00002cc0 is out of bounds.


Disassembly of section .debug_abbrev:

00000000 <.debug_abbrev>:
   0:	10001101 	andne	r1, r0, r1, lsl #2
   4:	12011106 	andne	r1, r1, #-2147483647	; 0x80000001
   8:	1b080301 	blne	200c14 <PHYS_OFFSET-0x7fdff3ec>
   c:	13082508 	movwne	r2, #34056	; 0x8508
  10:	00000005 	andeq	r0, r0, r5
  14:	10001101 	andne	r1, r0, r1, lsl #2
  18:	12011106 	andne	r1, r1, #-2147483647	; 0x80000001
  1c:	1b080301 	blne	200c28 <PHYS_OFFSET-0x7fdff3d8>
  20:	13082508 	movwne	r2, #34056	; 0x8508
  24:	00000005 	andeq	r0, r0, r5
  28:	25011101 	strcs	r1, [r1, #-257]	; 0x101
  2c:	030b130e 	movweq	r1, #45838	; 0xb30e
  30:	110e1b0e 	tstne	lr, lr, lsl #22
  34:	10011201 	andne	r1, r1, r1, lsl #4
  38:	02000006 	andeq	r0, r0, #6
  3c:	0b0b0024 	bleq	2c00d4 <PHYS_OFFSET-0x7fd3ff2c>
  40:	0e030b3e 	vmoveq.16	d3[0], r0
  44:	24030000 	strcs	r0, [r3], #-0
  48:	3e0b0b00 	vmlacc.f64	d0, d11, d0
  4c:	0008030b 	andeq	r0, r8, fp, lsl #6
  50:	012e0400 	teqeq	lr, r0, lsl #8
  54:	0e030c3f 	mcreq	12, 0, r0, cr3, cr15, {1}
  58:	0b3b0b3a 	bleq	ec2d48 <PHYS_OFFSET-0x7f13d2b8>
  5c:	01110c27 	tsteq	r1, r7, lsr #24
  60:	06400112 			; <UNDEFINED> instruction: 0x06400112
  64:	010c4297 			; <UNDEFINED> instruction: 0x010c4297
  68:	05000013 	streq	r0, [r0, #-19]
  6c:	01018289 	smlabbeq	r1, r9, r2, r8
  70:	13310111 	teqne	r1, #1073741828	; 0x40000004
  74:	00001301 	andeq	r1, r0, r1, lsl #6
  78:	01828a06 	orreq	r8, r2, r6, lsl #20
  7c:	910a0200 	mrsls	r0, R10_fiq
  80:	00000a42 	andeq	r0, r0, r2, asr #20
  84:	01828907 	orreq	r8, r2, r7, lsl #18
  88:	31011100 	mrscc	r1, (UNDEF: 17)
  8c:	08000013 	stmdaeq	r0, {r0, r1, r4}
  90:	00018289 	andeq	r8, r1, r9, lsl #5
  94:	42950111 	addsmi	r0, r5, #1073741828	; 0x40000004
  98:	0013310c 	andseq	r3, r3, ip, lsl #2
  9c:	00340900 	eorseq	r0, r4, r0, lsl #18
  a0:	0b3a0803 	bleq	e820b4 <PHYS_OFFSET-0x7f17df4c>
  a4:	13490b3b 	movtne	r0, #39739	; 0x9b3b
  a8:	00000602 	andeq	r0, r0, r2, lsl #12
  ac:	0300340a 	movweq	r3, #1034	; 0x40a
  b0:	3b0b3a0e 	blcc	2ce8f0 <PHYS_OFFSET-0x7fd31710>
  b4:	0213490b 	andseq	r4, r3, #180224	; 0x2c000
  b8:	0b00000a 	bleq	e8 <PHYS_OFFSET-0x7fffff18>
  bc:	0111010b 	tsteq	r1, fp, lsl #2
  c0:	13010112 	movwne	r0, #4370	; 0x1112
  c4:	890c0000 	stmdbhi	ip, {}	; <UNPREDICTABLE>
  c8:	11010182 	smlabbne	r1, r2, r1, r0
  cc:	0c429501 	cfstr64eq	mvdx9, [r2], {1}
  d0:	00001331 	andeq	r1, r0, r1, lsr r3
  d4:	3f012e0d 	svccc	0x00012e0d
  d8:	3a0e030c 	bcc	380d10 <PHYS_OFFSET-0x7fc7f2f0>
  dc:	270b3b0b 	strcs	r3, [fp, -fp, lsl #22]
  e0:	010c3c0c 	tsteq	ip, ip, lsl #24
  e4:	0e000013 	mcreq	0, 0, r0, cr0, cr3, {0}
  e8:	13490005 	movtne	r0, #36869	; 0x9005
  ec:	0f0f0000 	svceq	0x000f0000
  f0:	490b0b00 	stmdbmi	fp, {r8, r9, fp}
  f4:	10000013 	andne	r0, r0, r3, lsl r0
  f8:	0c3f002e 	ldceq	0, cr0, [pc], #-184	; 48 <PHYS_OFFSET-0x7fffffb8>
  fc:	0b3a0e03 	bleq	e83910 <PHYS_OFFSET-0x7f17c6f0>
 100:	0c270b3b 	stceq	11, cr0, [r7], #-236	; 0xffffff14
 104:	00000c3c 	andeq	r0, r0, ip, lsr ip
 108:	01110100 	tsteq	r1, r0, lsl #2
 10c:	0b130e25 	bleq	4c39a8 <PHYS_OFFSET-0x7fb3c658>
 110:	0e1b0e03 	cdpeq	14, 1, cr0, cr11, cr3, {0}
 114:	01120111 	tsteq	r2, r1, lsl r1
 118:	00000610 	andeq	r0, r0, r0, lsl r6
 11c:	0b002402 	bleq	912c <PHYS_OFFSET-0x7fff6ed4>
 120:	030b3e0b 	movweq	r3, #48651	; 0xbe0b
 124:	03000008 	movweq	r0, #8
 128:	0e030016 	mcreq	0, 0, r0, cr3, cr6, {0}
 12c:	0b3b0b3a 	bleq	ec2e1c <PHYS_OFFSET-0x7f13d1e4>
 130:	00001349 	andeq	r1, r0, r9, asr #6
 134:	0b002404 	bleq	914c <PHYS_OFFSET-0x7fff6eb4>
 138:	030b3e0b 	movweq	r3, #48651	; 0xbe0b
 13c:	0500000e 	streq	r0, [r0, #-14]
 140:	0e03012e 	adfeqsp	f0, f3, #0.5
 144:	0b3b0b3a 	bleq	ec2e34 <PHYS_OFFSET-0x7f13d1cc>
 148:	13490c27 	movtne	r0, #39975	; 0x9c27
 14c:	13010b20 	movwne	r0, #6944	; 0x1b20
 150:	05060000 	streq	r0, [r6, #-0]
 154:	3a0e0300 	bcc	380d5c <PHYS_OFFSET-0x7fc7f2a4>
 158:	490b3b0b 	stmdbmi	fp, {r0, r1, r3, r8, r9, fp, ip, sp}
 15c:	07000013 	smladeq	r0, r3, r0, r0
 160:	08030005 	stmdaeq	r3, {r0, r2}
 164:	0b3b0b3a 	bleq	ec2e54 <PHYS_OFFSET-0x7f13d1ac>
 168:	00001349 	andeq	r1, r0, r9, asr #6
 16c:	03003408 	movweq	r3, #1032	; 0x408
 170:	3b0b3a08 	blcc	2ce998 <PHYS_OFFSET-0x7fd31668>
 174:	0013490b 	andseq	r4, r3, fp, lsl #18
 178:	000f0900 	andeq	r0, pc, r0, lsl #18
 17c:	00000b0b 	andeq	r0, r0, fp, lsl #22
 180:	0b000f0a 	bleq	3db0 <PHYS_OFFSET-0x7fffc250>
 184:	0013490b 	andseq	r4, r3, fp, lsl #18
 188:	00260b00 	eoreq	r0, r6, r0, lsl #22
 18c:	2e0c0000 	cdpcs	0, 0, cr0, cr12, cr0, {0}
 190:	030c3f01 	movweq	r3, #52993	; 0xcf01
 194:	3b0b3a0e 	blcc	2ce9d4 <PHYS_OFFSET-0x7fd3162c>
 198:	490c270b 	stmdbmi	ip, {r0, r1, r3, r8, r9, sl, sp}
 19c:	12011113 	andne	r1, r1, #-1073741820	; 0xc0000004
 1a0:	970a4001 	strls	r4, [sl, -r1]
 1a4:	13010c42 	movwne	r0, #7234	; 0x1c42
 1a8:	050d0000 	streq	r0, [sp, #-0]
 1ac:	3a0e0300 	bcc	380db4 <PHYS_OFFSET-0x7fc7f24c>
 1b0:	490b3b0b 	stmdbmi	fp, {r0, r1, r3, r8, r9, fp, ip, sp}
 1b4:	000a0213 	andeq	r0, sl, r3, lsl r2
 1b8:	00050e00 	andeq	r0, r5, r0, lsl #28
 1bc:	0b3a0803 	bleq	e821d0 <PHYS_OFFSET-0x7f17de30>
 1c0:	13490b3b 	movtne	r0, #39739	; 0x9b3b
 1c4:	00000a02 	andeq	r0, r0, r2, lsl #20
 1c8:	31011d0f 	tstcc	r1, pc, lsl #26
 1cc:	12011113 	andne	r1, r1, #-1073741820	; 0xc0000004
 1d0:	590b5801 	stmdbpl	fp, {r0, fp, ip, lr}
 1d4:	1000000b 	andne	r0, r0, fp
 1d8:	13310005 	teqne	r1, #5
 1dc:	00000602 	andeq	r0, r0, r2, lsl #12
 1e0:	31000511 	tstcc	r0, r1, lsl r5
 1e4:	000a0213 	andeq	r0, sl, r3, lsl r2
 1e8:	010b1200 	mrseq	r1, R11_fiq
 1ec:	01120111 	tsteq	r2, r1, lsl r1
 1f0:	34130000 	ldrcc	r0, [r3], #-0
 1f4:	02133100 	andseq	r3, r3, #0
 1f8:	14000006 	strne	r0, [r0], #-6
 1fc:	0e030005 	cdpeq	0, 0, cr0, cr3, cr5, {0}
 200:	0b3b0b3a 	bleq	ec2ef0 <PHYS_OFFSET-0x7f13d110>
 204:	06021349 	streq	r1, [r2], -r9, asr #6
 208:	05150000 	ldreq	r0, [r5, #-0]
 20c:	3a080300 	bcc	200e14 <PHYS_OFFSET-0x7fdff1ec>
 210:	490b3b0b 	stmdbmi	fp, {r0, r1, r3, r8, r9, fp, ip, sp}
 214:	00060213 	andeq	r0, r6, r3, lsl r2
 218:	011d1600 	tsteq	sp, r0, lsl #12
 21c:	01111331 	tsteq	r1, r1, lsr r3
 220:	0b580112 	bleq	1600670 <PHYS_OFFSET-0x7e9ff990>
 224:	13010b59 	movwne	r0, #7001	; 0x1b59
 228:	05170000 	ldreq	r0, [r7, #-0]
 22c:	00133100 	andseq	r3, r3, r0, lsl #2
 230:	00341800 	eorseq	r1, r4, r0, lsl #16
 234:	0b3a0803 	bleq	e82248 <PHYS_OFFSET-0x7f17ddb8>
 238:	13490b3b 	movtne	r0, #39739	; 0x9b3b
 23c:	00000602 	andeq	r0, r0, r2, lsl #12
 240:	49002619 	stmdbmi	r0, {r0, r3, r4, r9, sl, sp}
 244:	1a000013 	bne	298 <PHYS_OFFSET-0x7ffffd68>
 248:	0c3f012e 	ldfeqs	f0, [pc], #-184	; 198 <PHYS_OFFSET-0x7ffffe68>
 24c:	0b3a0e03 	bleq	e83a60 <PHYS_OFFSET-0x7f17c5a0>
 250:	0c270b3b 	stceq	11, cr0, [r7], #-236	; 0xffffff14
 254:	01111349 	tsteq	r1, r9, asr #6
 258:	06400112 			; <UNDEFINED> instruction: 0x06400112
 25c:	010c4297 			; <UNDEFINED> instruction: 0x010c4297
 260:	1b000013 	blne	2b4 <PHYS_OFFSET-0x7ffffd4c>
 264:	0c3f012e 	ldfeqs	f0, [pc], #-184	; 1b4 <PHYS_OFFSET-0x7ffffe4c>
 268:	0b3a0e03 	bleq	e83a7c <PHYS_OFFSET-0x7f17c584>
 26c:	0c270b3b 	stceq	11, cr0, [r7], #-236	; 0xffffff14
 270:	01111349 	tsteq	r1, r9, asr #6
 274:	0a400112 	beq	10006c4 <PHYS_OFFSET-0x7efff93c>
 278:	000c4297 	muleq	ip, r7, r2
 27c:	11010000 	mrsne	r0, (UNDEF: 1)
 280:	130e2501 	movwne	r2, #58625	; 0xe501
 284:	1b0e030b 	blne	380eb8 <PHYS_OFFSET-0x7fc7f148>
 288:	1201110e 	andne	r1, r1, #-2147483645	; 0x80000003
 28c:	00061001 	andeq	r1, r6, r1
 290:	00160200 	andseq	r0, r6, r0, lsl #4
 294:	0b3a0e03 	bleq	e83aa8 <PHYS_OFFSET-0x7f17c558>
 298:	13490b3b 	movtne	r0, #39739	; 0x9b3b
 29c:	24030000 	strcs	r0, [r3], #-0
 2a0:	3e0b0b00 	vmlacc.f64	d0, d11, d0
 2a4:	000e030b 	andeq	r0, lr, fp, lsl #6
 2a8:	01040400 	tsteq	r4, r0, lsl #8
 2ac:	0b3a0b0b 	bleq	e82ee0 <PHYS_OFFSET-0x7f17d120>
 2b0:	13010b3b 	movwne	r0, #6971	; 0x1b3b
 2b4:	28050000 	stmdacs	r5, {}	; <UNPREDICTABLE>
 2b8:	1c0e0300 	stcne	3, cr0, [lr], {-0}
 2bc:	0600000d 	streq	r0, [r0], -sp
 2c0:	0b0b0113 	bleq	2c0714 <PHYS_OFFSET-0x7fd3f8ec>
 2c4:	0b3b0b3a 	bleq	ec2fb4 <PHYS_OFFSET-0x7f13d04c>
 2c8:	00001301 	andeq	r1, r0, r1, lsl #6
 2cc:	03000d07 	movweq	r0, #3335	; 0xd07
 2d0:	3b0b3a0e 	blcc	2ceb10 <PHYS_OFFSET-0x7fd314f0>
 2d4:	0b13490b 	bleq	4d2708 <PHYS_OFFSET-0x7fb2d8f8>
 2d8:	0c0b0d0b 	stceq	13, cr0, [fp], {11}
 2dc:	000a380b 	andeq	r3, sl, fp, lsl #16
 2e0:	000d0800 	andeq	r0, sp, r0, lsl #16
 2e4:	0b3a0803 	bleq	e822f8 <PHYS_OFFSET-0x7f17dd08>
 2e8:	13490b3b 	movtne	r0, #39739	; 0x9b3b
 2ec:	0b0d0b0b 	bleq	342f20 <PHYS_OFFSET-0x7fcbd0e0>
 2f0:	0a380b0c 	beq	e02f28 <PHYS_OFFSET-0x7f1fd0d8>
 2f4:	17090000 	strne	r0, [r9, -r0]
 2f8:	3a0b0b01 	bcc	2c2f04 <PHYS_OFFSET-0x7fd3d0fc>
 2fc:	010b3b0b 	tsteq	fp, fp, lsl #22
 300:	0a000013 	beq	354 <PHYS_OFFSET-0x7ffffcac>
 304:	0e03000d 	cdpeq	0, 0, cr0, cr3, cr13, {0}
 308:	0b3b0b3a 	bleq	ec2ff8 <PHYS_OFFSET-0x7f13d008>
 30c:	00001349 	andeq	r1, r0, r9, asr #6
 310:	03000d0b 	movweq	r0, #3339	; 0xd0b
 314:	3b0b3a08 	blcc	2ceb3c <PHYS_OFFSET-0x7fd314c4>
 318:	0013490b 	andseq	r4, r3, fp, lsl #18
 31c:	01130c00 	tsteq	r3, r0, lsl #24
 320:	0b0b0e03 	bleq	2c3b34 <PHYS_OFFSET-0x7fd3c4cc>
 324:	0b3b0b3a 	bleq	ec3014 <PHYS_OFFSET-0x7f13cfec>
 328:	00001301 	andeq	r1, r0, r1, lsl #6
 32c:	03000d0d 	movweq	r0, #3341	; 0xd0d
 330:	3b0b3a0e 	blcc	2ceb70 <PHYS_OFFSET-0x7fd31490>
 334:	3813490b 	ldmdacc	r3, {r0, r1, r3, r8, fp, lr}
 338:	0e00000a 	cdpeq	0, 0, cr0, cr0, cr10, {0}
 33c:	0803000d 	stmdaeq	r3, {r0, r2, r3}
 340:	0b3b0b3a 	bleq	ec3030 <PHYS_OFFSET-0x7f13cfd0>
 344:	0a381349 	beq	e05070 <PHYS_OFFSET-0x7f1faf90>
 348:	010f0000 	mrseq	r0, CPSR
 34c:	01134901 	tsteq	r3, r1, lsl #18
 350:	10000013 	andne	r0, r0, r3, lsl r0
 354:	13490021 	movtne	r0, #36897	; 0x9021
 358:	00000b2f 	andeq	r0, r0, pc, lsr #22
 35c:	0b000f11 	bleq	3fa8 <PHYS_OFFSET-0x7fffc058>
 360:	0013490b 	andseq	r4, r3, fp, lsl #18
 364:	002e1200 	eoreq	r1, lr, r0, lsl #4
 368:	0e030c3f 	mcreq	12, 0, r0, cr3, cr15, {1}
 36c:	0b3b0b3a 	bleq	ec305c <PHYS_OFFSET-0x7f13cfa4>
 370:	0b200c27 	bleq	803414 <PHYS_OFFSET-0x7f7fcbec>
 374:	2e130000 	cdpcs	0, 1, cr0, cr3, cr0, {0}
 378:	3a0e0301 	bcc	380f84 <PHYS_OFFSET-0x7fc7f07c>
 37c:	270b3b0b 	strcs	r3, [fp, -fp, lsl #22]
 380:	1201110c 	andne	r1, r1, #3
 384:	97064001 	strls	r4, [r6, -r1]
 388:	13010c42 	movwne	r0, #7234	; 0x1c42
 38c:	05140000 	ldreq	r0, [r4, #-0]
 390:	3a0e0300 	bcc	380f98 <PHYS_OFFSET-0x7fc7f068>
 394:	490b3b0b 	stmdbmi	fp, {r0, r1, r3, r8, r9, fp, ip, sp}
 398:	00060213 	andeq	r0, r6, r3, lsl r2
 39c:	00341500 	eorseq	r1, r4, r0, lsl #10
 3a0:	0b3a0e03 	bleq	e83bb4 <PHYS_OFFSET-0x7f17c44c>
 3a4:	13490b3b 	movtne	r0, #39739	; 0x9b3b
 3a8:	00000602 	andeq	r0, r0, r2, lsl #12
 3ac:	03003416 	movweq	r3, #1046	; 0x416
 3b0:	3b0b3a08 	blcc	2cebd8 <PHYS_OFFSET-0x7fd31428>
 3b4:	0213490b 	andseq	r4, r3, #180224	; 0x2c000
 3b8:	17000006 	strne	r0, [r0, -r6]
 3bc:	08030034 	stmdaeq	r3, {r2, r4, r5}
 3c0:	0b3b0b3a 	bleq	ec30b0 <PHYS_OFFSET-0x7f13cf50>
 3c4:	00001349 	andeq	r1, r0, r9, asr #6
 3c8:	01828918 	orreq	r8, r2, r8, lsl r9
 3cc:	31011101 	tstcc	r1, r1, lsl #2
 3d0:	00130113 	andseq	r0, r3, r3, lsl r1
 3d4:	828a1900 	addhi	r1, sl, #0
 3d8:	0a020001 	beq	803e4 <PHYS_OFFSET-0x7ff7fc1c>
 3dc:	000a4291 	muleq	sl, r1, r2
 3e0:	82891a00 	addhi	r1, r9, #0
 3e4:	01110001 	tsteq	r1, r1
 3e8:	00001331 	andeq	r1, r0, r1, lsr r3
 3ec:	0182891b 	orreq	r8, r2, fp, lsl r9
 3f0:	95011101 	strls	r1, [r1, #-257]	; 0x101
 3f4:	13310c42 	teqne	r1, #16896	; 0x4200
 3f8:	241c0000 	ldrcs	r0, [ip], #-0
 3fc:	3e0b0b00 	vmlacc.f64	d0, d11, d0
 400:	0008030b 	andeq	r0, r8, fp, lsl #6
 404:	012e1d00 	teqeq	lr, r0, lsl #26
 408:	0e030c3f 	mcreq	12, 0, r0, cr3, cr15, {1}
 40c:	0b3b0b3a 	bleq	ec30fc <PHYS_OFFSET-0x7f13cf04>
 410:	01110c27 	tsteq	r1, r7, lsr #24
 414:	06400112 			; <UNDEFINED> instruction: 0x06400112
 418:	010c4297 			; <UNDEFINED> instruction: 0x010c4297
 41c:	1e000013 	mcrne	0, 0, r0, cr0, cr3, {0}
 420:	1331002e 	teqne	r1, #46	; 0x2e
 424:	01120111 	tsteq	r2, r1, lsl r1
 428:	42970a40 	addsmi	r0, r7, #262144	; 0x40000
 42c:	1f00000c 	svcne	0x0000000c
 430:	0c3f012e 	ldfeqs	f0, [pc], #-184	; 380 <PHYS_OFFSET-0x7ffffc80>
 434:	0b3a0e03 	bleq	e83c48 <PHYS_OFFSET-0x7f17c3b8>
 438:	0c270b3b 	stceq	11, cr0, [r7], #-236	; 0xffffff14
 43c:	01111349 	tsteq	r1, r9, asr #6
 440:	06400112 			; <UNDEFINED> instruction: 0x06400112
 444:	010c4297 			; <UNDEFINED> instruction: 0x010c4297
 448:	20000013 	andcs	r0, r0, r3, lsl r0
 44c:	01018289 	smlabbeq	r1, r9, r2, r8
 450:	13310111 	teqne	r1, #1073741828	; 0x40000004
 454:	34210000 	strtcc	r0, [r1], #-0
 458:	3a080300 	bcc	201060 <PHYS_OFFSET-0x7fdfefa0>
 45c:	490b3b0b 	stmdbmi	fp, {r0, r1, r3, r8, r9, fp, ip, sp}
 460:	000a0213 	andeq	r0, sl, r3, lsl r2
 464:	010b2200 	mrseq	r2, R11_fiq
 468:	01120111 	tsteq	r2, r1, lsl r1
 46c:	00001301 	andeq	r1, r0, r1, lsl #6
 470:	03003423 	movweq	r3, #1059	; 0x423
 474:	3b0b3a0e 	blcc	2cecb4 <PHYS_OFFSET-0x7fd3134c>
 478:	0213490b 	andseq	r4, r3, #180224	; 0x2c000
 47c:	2400000a 	strcs	r0, [r0], #-10
 480:	00018289 	andeq	r8, r1, r9, lsl #5
 484:	42950111 	addsmi	r0, r5, #1073741828	; 0x40000004
 488:	0013310c 	andseq	r3, r3, ip, lsl #2
 48c:	012e2500 	teqeq	lr, r0, lsl #10
 490:	0e030c3f 	mcreq	12, 0, r0, cr3, cr15, {1}
 494:	0b3b0b3a 	bleq	ec3184 <PHYS_OFFSET-0x7f13ce7c>
 498:	0c3c1349 	ldceq	3, cr1, [ip], #-292	; 0xfffffedc
 49c:	00001301 	andeq	r1, r0, r1, lsl #6
 4a0:	00001826 	andeq	r1, r0, r6, lsr #16
 4a4:	012e2700 	teqeq	lr, r0, lsl #14
 4a8:	0e030c3f 	mcreq	12, 0, r0, cr3, cr15, {1}
 4ac:	0b3b0b3a 	bleq	ec319c <PHYS_OFFSET-0x7f13ce64>
 4b0:	0c3c0c27 	ldceq	12, cr0, [ip], #-156	; 0xffffff64
 4b4:	00001301 	andeq	r1, r0, r1, lsl #6
 4b8:	49000528 	stmdbmi	r0, {r3, r5, r8, sl}
 4bc:	29000013 	stmdbcs	r0, {r0, r1, r4}
 4c0:	0c3f012e 	ldfeqs	f0, [pc], #-184	; 410 <PHYS_OFFSET-0x7ffffbf0>
 4c4:	0b3a0e03 	bleq	e83cd8 <PHYS_OFFSET-0x7f17c328>
 4c8:	0c270b3b 	stceq	11, cr0, [r7], #-236	; 0xffffff14
 4cc:	0c3c1349 	ldceq	3, cr1, [ip], #-292	; 0xfffffedc
 4d0:	00001301 	andeq	r1, r0, r1, lsl #6
 4d4:	3f002e2a 	svccc	0x00002e2a
 4d8:	3a0e030c 	bcc	381110 <PHYS_OFFSET-0x7fc7eef0>
 4dc:	270b3b0b 	strcs	r3, [fp, -fp, lsl #22]
 4e0:	3c13490c 	ldccc	9, cr4, [r3], {12}
 4e4:	2b00000c 	blcs	51c <PHYS_OFFSET-0x7ffffae4>
 4e8:	0c3f012e 	ldfeqs	f0, [pc], #-184	; 438 <PHYS_OFFSET-0x7ffffbc8>
 4ec:	0b3a0e03 	bleq	e83d00 <PHYS_OFFSET-0x7f17c300>
 4f0:	13490b3b 	movtne	r0, #39739	; 0x9b3b
 4f4:	00000c3c 	andeq	r0, r0, ip, lsr ip
 4f8:	01110100 	tsteq	r1, r0, lsl #2
 4fc:	0b130e25 	bleq	4c3d98 <PHYS_OFFSET-0x7fb3c268>
 500:	0e1b0e03 	cdpeq	14, 1, cr0, cr11, cr3, {0}
 504:	01120111 	tsteq	r2, r1, lsl r1
 508:	00000610 	andeq	r0, r0, r0, lsl r6
 50c:	0b002402 	bleq	951c <PHYS_OFFSET-0x7fff6ae4>
 510:	030b3e0b 	movweq	r3, #48651	; 0xbe0b
 514:	0300000e 	movweq	r0, #14
 518:	0c3f012e 	ldfeqs	f0, [pc], #-184	; 468 <PHYS_OFFSET-0x7ffffb98>
 51c:	0b3a0e03 	bleq	e83d30 <PHYS_OFFSET-0x7f17c2d0>
 520:	0c270b3b 	stceq	11, cr0, [r7], #-236	; 0xffffff14
 524:	01120111 	tsteq	r2, r1, lsl r1
 528:	42970640 	addsmi	r0, r7, #67108864	; 0x4000000
 52c:	0013010c 	andseq	r0, r3, ip, lsl #2
 530:	82890400 	addhi	r0, r9, #0
 534:	01110101 	tsteq	r1, r1, lsl #2
 538:	13011331 	movwne	r1, #4913	; 0x1331
 53c:	8a050000 	bhi	140544 <PHYS_OFFSET-0x7febfabc>
 540:	02000182 	andeq	r0, r0, #-2147483616	; 0x80000020
 544:	0a42910a 	beq	10a4974 <PHYS_OFFSET-0x7ef5b68c>
 548:	89060000 	stmdbhi	r6, {}	; <UNPREDICTABLE>
 54c:	11000182 	smlabbne	r0, r2, r1, r0
 550:	0c429501 	cfstr64eq	mvdx9, [r2], {1}
 554:	00001331 	andeq	r1, r0, r1, lsr r3
 558:	3f012e07 	svccc	0x00012e07
 55c:	3a0e030c 	bcc	381194 <PHYS_OFFSET-0x7fc7ee6c>
 560:	270b3b0b 	strcs	r3, [fp, -fp, lsl #22]
 564:	010c3c0c 	tsteq	ip, ip, lsl #24
 568:	08000013 	stmdaeq	r0, {r0, r1, r4}
 56c:	13490005 	movtne	r0, #36869	; 0x9005
 570:	0f090000 	svceq	0x00090000
 574:	490b0b00 	stmdbmi	fp, {r8, r9, fp}
 578:	0a000013 	beq	5cc <PHYS_OFFSET-0x7ffffa34>
 57c:	0c3f002e 	ldceq	0, cr0, [pc], #-184	; 4cc <PHYS_OFFSET-0x7ffffb34>
 580:	0b3a0e03 	bleq	e83d94 <PHYS_OFFSET-0x7f17c26c>
 584:	0c270b3b 	stceq	11, cr0, [r7], #-236	; 0xffffff14
 588:	00000c3c 	andeq	r0, r0, ip, lsr ip
 58c:	01110100 	tsteq	r1, r0, lsl #2
 590:	0b130e25 	bleq	4c3e2c <PHYS_OFFSET-0x7fb3c1d4>
 594:	0e1b0e03 	cdpeq	14, 1, cr0, cr11, cr3, {0}
 598:	01120111 	tsteq	r2, r1, lsl r1
 59c:	00000610 	andeq	r0, r0, r0, lsl r6
 5a0:	0b002402 	bleq	95b0 <PHYS_OFFSET-0x7fff6a50>
 5a4:	030b3e0b 	movweq	r3, #48651	; 0xbe0b
 5a8:	0300000e 	movweq	r0, #14
 5ac:	0e030016 	mcreq	0, 0, r0, cr3, cr6, {0}
 5b0:	0b3b0b3a 	bleq	ec32a0 <PHYS_OFFSET-0x7f13cd60>
 5b4:	00001349 	andeq	r1, r0, r9, asr #6
 5b8:	3f012e04 	svccc	0x00012e04
 5bc:	3a0e030c 	bcc	3811f4 <PHYS_OFFSET-0x7fc7ee0c>
 5c0:	270b3b0b 	strcs	r3, [fp, -fp, lsl #22]
 5c4:	010b200c 	tsteq	fp, ip
 5c8:	05000013 	streq	r0, [r0, #-19]
 5cc:	08030005 	stmdaeq	r3, {r0, r2}
 5d0:	0b3b0b3a 	bleq	ec32c0 <PHYS_OFFSET-0x7f13cd40>
 5d4:	00001349 	andeq	r1, r0, r9, asr #6
 5d8:	03003406 	movweq	r3, #1030	; 0x406
 5dc:	3b0b3a0e 	blcc	2cee1c <PHYS_OFFSET-0x7fd311e4>
 5e0:	0013490b 	andseq	r4, r3, fp, lsl #18
 5e4:	000f0700 	andeq	r0, pc, r0, lsl #14
 5e8:	13490b0b 	movtne	r0, #39691	; 0x9b0b
 5ec:	35080000 	strcc	r0, [r8, #-0]
 5f0:	00134900 	andseq	r4, r3, r0, lsl #18
 5f4:	012e0900 	teqeq	lr, r0, lsl #18
 5f8:	01111331 	tsteq	r1, r1, lsr r3
 5fc:	0a400112 	beq	1000a4c <PHYS_OFFSET-0x7efff5b4>
 600:	010c4297 			; <UNDEFINED> instruction: 0x010c4297
 604:	0a000013 	beq	658 <PHYS_OFFSET-0x7ffff9a8>
 608:	13310005 	teqne	r1, #5
 60c:	00000602 	andeq	r0, r0, r2, lsl #12
 610:	3100340b 	tstcc	r0, fp, lsl #8
 614:	00061c13 	andeq	r1, r6, r3, lsl ip
 618:	00050c00 	andeq	r0, r5, r0, lsl #24
 61c:	0a021331 	beq	852e8 <PHYS_OFFSET-0x7ff7ad18>
 620:	2e0d0000 	cdpcs	0, 0, cr0, cr13, cr0, {0}
 624:	030c3f01 	movweq	r3, #52993	; 0xcf01
 628:	3b0b3a0e 	blcc	2cee68 <PHYS_OFFSET-0x7fd31198>
 62c:	110c270b 	tstne	ip, fp, lsl #14
 630:	40011201 	andmi	r1, r1, r1, lsl #4
 634:	0c42970a 	mcrreq	7, 0, r9, r2, cr10
 638:	00001301 	andeq	r1, r0, r1, lsl #6
 63c:	0300050e 	movweq	r0, #1294	; 0x50e
 640:	3b0b3a08 	blcc	2cee68 <PHYS_OFFSET-0x7fd31198>
 644:	0213490b 	andseq	r4, r3, #180224	; 0x2c000
 648:	0f00000a 	svceq	0x0000000a
 64c:	0e030034 	mcreq	0, 0, r0, cr3, cr4, {1}
 650:	0b3b0b3a 	bleq	ec3340 <PHYS_OFFSET-0x7f13ccc0>
 654:	0b1c1349 	bleq	705380 <PHYS_OFFSET-0x7f8fac80>
 658:	34100000 	ldrcc	r0, [r0], #-0
 65c:	3a080300 	bcc	201264 <PHYS_OFFSET-0x7fdfed9c>
 660:	490b3b0b 	stmdbmi	fp, {r0, r1, r3, r8, r9, fp, ip, sp}
 664:	00060213 	andeq	r0, r6, r3, lsl r2
 668:	00341100 	eorseq	r1, r4, r0, lsl #2
 66c:	0b3a0803 	bleq	e82680 <PHYS_OFFSET-0x7f17d980>
 670:	13490b3b 	movtne	r0, #39739	; 0x9b3b
 674:	1d120000 	ldcne	0, cr0, [r2, #-0]
 678:	52133101 	andspl	r3, r3, #1073741824	; 0x40000000
 67c:	58065501 	stmdapl	r6, {r0, r8, sl, ip, lr}
 680:	010b590b 	tsteq	fp, fp, lsl #18
 684:	13000013 	movwne	r0, #19
 688:	0655010b 	ldrbeq	r0, [r5], -fp, lsl #2
 68c:	1d140000 	ldcne	0, cr0, [r4, #-0]
 690:	52133101 	andspl	r3, r3, #1073741824	; 0x40000000
 694:	58065501 	stmdapl	r6, {r0, r8, sl, ip, lr}
 698:	000b590b 	andeq	r5, fp, fp, lsl #18
 69c:	00241500 	eoreq	r1, r4, r0, lsl #10
 6a0:	0b3e0b0b 	bleq	f832d4 <PHYS_OFFSET-0x7f07cd2c>
 6a4:	00000803 	andeq	r0, r0, r3, lsl #16
 6a8:	3f012e16 	svccc	0x00012e16
 6ac:	3a0e030c 	bcc	3812e4 <PHYS_OFFSET-0x7fc7ed1c>
 6b0:	270b3b0b 	strcs	r3, [fp, -fp, lsl #22]
 6b4:	1201110c 	andne	r1, r1, #3
 6b8:	97064001 	strls	r4, [r6, -r1]
 6bc:	00000c42 	andeq	r0, r0, r2, asr #24
 6c0:	03000517 	movweq	r0, #1303	; 0x517
 6c4:	3b0b3a08 	blcc	2ceeec <PHYS_OFFSET-0x7fd31114>
 6c8:	0213490b 	andseq	r4, r3, #180224	; 0x2c000
 6cc:	18000006 	stmdane	r0, {r1, r2}
 6d0:	00018289 	andeq	r8, r1, r9, lsl #5
 6d4:	13310111 	teqne	r1, #1073741828	; 0x40000004
 6d8:	89190000 	ldmdbhi	r9, {}	; <UNPREDICTABLE>
 6dc:	11010182 	smlabbne	r1, r2, r1, r0
 6e0:	0c429501 	cfstr64eq	mvdx9, [r2], {1}
 6e4:	00001331 	andeq	r1, r0, r1, lsr r3
 6e8:	01828a1a 	orreq	r8, r2, sl, lsl sl
 6ec:	910a0200 	mrsls	r0, R10_fiq
 6f0:	00000a42 	andeq	r0, r0, r2, asr #20
 6f4:	01110100 	tsteq	r1, r0, lsl #2
 6f8:	0b130e25 	bleq	4c3f94 <PHYS_OFFSET-0x7fb3c06c>
 6fc:	0e1b0e03 	cdpeq	14, 1, cr0, cr11, cr3, {0}
 700:	01120111 	tsteq	r2, r1, lsl r1
 704:	00000610 	andeq	r0, r0, r0, lsl r6
 708:	0b002402 	bleq	9718 <PHYS_OFFSET-0x7fff68e8>
 70c:	030b3e0b 	movweq	r3, #48651	; 0xbe0b
 710:	0300000e 	movweq	r0, #14
 714:	0b0b0104 	bleq	2c0b2c <PHYS_OFFSET-0x7fd3f4d4>
 718:	0b3b0b3a 	bleq	ec3408 <PHYS_OFFSET-0x7f13cbf8>
 71c:	00001301 	andeq	r1, r0, r1, lsl #6
 720:	03002804 	movweq	r2, #2052	; 0x804
 724:	000d1c0e 	andeq	r1, sp, lr, lsl #24
 728:	00160500 	andseq	r0, r6, r0, lsl #10
 72c:	0b3a0e03 	bleq	e83f40 <PHYS_OFFSET-0x7f17c0c0>
 730:	13490b3b 	movtne	r0, #39739	; 0x9b3b
 734:	13060000 	movwne	r0, #24576	; 0x6000
 738:	3a0b0b01 	bcc	2c3344 <PHYS_OFFSET-0x7fd3ccbc>
 73c:	010b3b0b 	tsteq	fp, fp, lsl #22
 740:	07000013 	smladeq	r0, r3, r0, r0
 744:	0e03000d 	cdpeq	0, 0, cr0, cr3, cr13, {0}
 748:	0b3b0b3a 	bleq	ec3438 <PHYS_OFFSET-0x7f13cbc8>
 74c:	0b0b1349 	bleq	2c5478 <PHYS_OFFSET-0x7fd3ab88>
 750:	0b0c0b0d 	bleq	30338c <PHYS_OFFSET-0x7fcfcc74>
 754:	00000a38 	andeq	r0, r0, r8, lsr sl
 758:	03000d08 	movweq	r0, #3336	; 0xd08
 75c:	3b0b3a08 	blcc	2cef84 <PHYS_OFFSET-0x7fd3107c>
 760:	0b13490b 	bleq	4d2b94 <PHYS_OFFSET-0x7fb2d46c>
 764:	0c0b0d0b 	stceq	13, cr0, [fp], {11}
 768:	000a380b 	andeq	r3, sl, fp, lsl #16
 76c:	01170900 	tsteq	r7, r0, lsl #18
 770:	0b3a0b0b 	bleq	e833a4 <PHYS_OFFSET-0x7f17cc5c>
 774:	13010b3b 	movwne	r0, #6971	; 0x1b3b
 778:	0d0a0000 	stceq	0, cr0, [sl, #-0]
 77c:	3a0e0300 	bcc	381384 <PHYS_OFFSET-0x7fc7ec7c>
 780:	490b3b0b 	stmdbmi	fp, {r0, r1, r3, r8, r9, fp, ip, sp}
 784:	0b000013 	bleq	7d8 <PHYS_OFFSET-0x7ffff828>
 788:	0803000d 	stmdaeq	r3, {r0, r2, r3}
 78c:	0b3b0b3a 	bleq	ec347c <PHYS_OFFSET-0x7f13cb84>
 790:	00001349 	andeq	r1, r0, r9, asr #6
 794:	3f012e0c 	svccc	0x00012e0c
 798:	3a0e030c 	bcc	3813d0 <PHYS_OFFSET-0x7fc7ec30>
 79c:	270b3b0b 	strcs	r3, [fp, -fp, lsl #22]
 7a0:	010b200c 	tsteq	fp, ip
 7a4:	0d000013 	stceq	0, cr0, [r0, #-76]	; 0xffffffb4
 7a8:	08030034 	stmdaeq	r3, {r2, r4, r5}
 7ac:	0b3b0b3a 	bleq	ec349c <PHYS_OFFSET-0x7f13cb64>
 7b0:	00001349 	andeq	r1, r0, r9, asr #6
 7b4:	0b00240e 	bleq	97f4 <PHYS_OFFSET-0x7fff680c>
 7b8:	030b3e0b 	movweq	r3, #48651	; 0xbe0b
 7bc:	0f000008 	svceq	0x00000008
 7c0:	0c3f012e 	ldfeqs	f0, [pc], #-184	; 710 <PHYS_OFFSET-0x7ffff8f0>
 7c4:	0b3a0e03 	bleq	e83fd8 <PHYS_OFFSET-0x7f17c028>
 7c8:	0c270b3b 	stceq	11, cr0, [r7], #-236	; 0xffffff14
 7cc:	01111349 	tsteq	r1, r9, asr #6
 7d0:	0a400112 	beq	1000c20 <PHYS_OFFSET-0x7efff3e0>
 7d4:	010c4297 			; <UNDEFINED> instruction: 0x010c4297
 7d8:	10000013 	andne	r0, r0, r3, lsl r0
 7dc:	0e030005 	cdpeq	0, 0, cr0, cr3, cr5, {0}
 7e0:	0b3b0b3a 	bleq	ec34d0 <PHYS_OFFSET-0x7f13cb30>
 7e4:	06021349 	streq	r1, [r2], -r9, asr #6
 7e8:	34110000 	ldrcc	r0, [r1], #-0
 7ec:	3a0e0300 	bcc	3813f4 <PHYS_OFFSET-0x7fc7ec0c>
 7f0:	490b3b0b 	stmdbmi	fp, {r0, r1, r3, r8, r9, fp, ip, sp}
 7f4:	00060213 	andeq	r0, r6, r3, lsl r2
 7f8:	000f1200 	andeq	r1, pc, r0, lsl #4
 7fc:	13490b0b 	movtne	r0, #39691	; 0x9b0b
 800:	2e130000 	cdpcs	0, 1, cr0, cr3, cr0, {0}
 804:	030c3f01 	movweq	r3, #52993	; 0xcf01
 808:	3b0b3a0e 	blcc	2cf048 <PHYS_OFFSET-0x7fd30fb8>
 80c:	110c270b 	tstne	ip, fp, lsl #14
 810:	40011201 	andmi	r1, r1, r1, lsl #4
 814:	0c42970a 	mcrreq	7, 0, r9, r2, cr10
 818:	00001301 	andeq	r1, r0, r1, lsl #6
 81c:	03000514 	movweq	r0, #1300	; 0x514
 820:	3b0b3a0e 	blcc	2cf060 <PHYS_OFFSET-0x7fd30fa0>
 824:	0213490b 	andseq	r4, r3, #180224	; 0x2c000
 828:	1500000a 	strne	r0, [r0, #-10]
 82c:	08030034 	stmdaeq	r3, {r2, r4, r5}
 830:	0b3b0b3a 	bleq	ec3520 <PHYS_OFFSET-0x7f13cae0>
 834:	0a021349 	beq	85560 <PHYS_OFFSET-0x7ff7aaa0>
 838:	0b160000 	bleq	580840 <PHYS_OFFSET-0x7fa7f7c0>
 83c:	12011101 	andne	r1, r1, #1073741824	; 0x40000000
 840:	17000001 	strne	r0, [r0, -r1]
 844:	0c3f012e 	ldfeqs	f0, [pc], #-184	; 794 <PHYS_OFFSET-0x7ffff86c>
 848:	0b3a0e03 	bleq	e8405c <PHYS_OFFSET-0x7f17bfa4>
 84c:	0c270b3b 	stceq	11, cr0, [r7], #-236	; 0xffffff14
 850:	01111349 	tsteq	r1, r9, asr #6
 854:	06400112 			; <UNDEFINED> instruction: 0x06400112
 858:	010c4297 			; <UNDEFINED> instruction: 0x010c4297
 85c:	18000013 	stmdane	r0, {r0, r1, r4}
 860:	0655010b 	ldrbeq	r0, [r5], -fp, lsl #2
 864:	00001301 	andeq	r1, r0, r1, lsl #6
 868:	03003419 	movweq	r3, #1049	; 0x419
 86c:	3b0b3a08 	blcc	2cf094 <PHYS_OFFSET-0x7fd30f6c>
 870:	0213490b 	andseq	r4, r3, #180224	; 0x2c000
 874:	1a000006 	bne	894 <PHYS_OFFSET-0x7ffff76c>
 878:	01018289 	smlabbeq	r1, r9, r2, r8
 87c:	13310111 	teqne	r1, #1073741828	; 0x40000004
 880:	00001301 	andeq	r1, r0, r1, lsl #6
 884:	01828a1b 	orreq	r8, r2, fp, lsl sl
 888:	910a0200 	mrsls	r0, R10_fiq
 88c:	00000a42 	andeq	r0, r0, r2, asr #20
 890:	0182891c 	orreq	r8, r2, ip, lsl r9
 894:	31011100 	mrscc	r1, (UNDEF: 17)
 898:	1d000013 	stcne	0, cr0, [r0, #-76]	; 0xffffffb4
 89c:	08030005 	stmdaeq	r3, {r0, r2}
 8a0:	0b3b0b3a 	bleq	ec3590 <PHYS_OFFSET-0x7f13ca70>
 8a4:	06021349 	streq	r1, [r2], -r9, asr #6
 8a8:	341e0000 	ldrcc	r0, [lr], #-0
 8ac:	3a0e0300 	bcc	3814b4 <PHYS_OFFSET-0x7fc7eb4c>
 8b0:	490b3b0b 	stmdbmi	fp, {r0, r1, r3, r8, r9, fp, ip, sp}
 8b4:	000a0213 	andeq	r0, sl, r3, lsl r2
 8b8:	82891f00 	addhi	r1, r9, #0
 8bc:	01110101 	tsteq	r1, r1, lsl #2
 8c0:	00001331 	andeq	r1, r0, r1, lsr r3
 8c4:	31012e20 	tstcc	r1, r0, lsr #28
 8c8:	12011113 	andne	r1, r1, #-1073741820	; 0xc0000004
 8cc:	970a4001 	strls	r4, [sl, -r1]
 8d0:	13010c42 	movwne	r0, #7234	; 0x1c42
 8d4:	34210000 	strtcc	r0, [r1], #-0
 8d8:	1c133100 	ldfnes	f3, [r3], {-0}
 8dc:	2200000b 	andcs	r0, r0, #11
 8e0:	0c3f012e 	ldfeqs	f0, [pc], #-184	; 830 <PHYS_OFFSET-0x7ffff7d0>
 8e4:	0b3a0e03 	bleq	e840f8 <PHYS_OFFSET-0x7f17bf08>
 8e8:	0c27053b 	cfstr32eq	mvfx0, [r7], #-236	; 0xffffff14
 8ec:	01120111 	tsteq	r2, r1, lsl r1
 8f0:	42970640 	addsmi	r0, r7, #67108864	; 0x4000000
 8f4:	0013010c 	andseq	r0, r3, ip, lsl #2
 8f8:	00342300 	eorseq	r2, r4, r0, lsl #6
 8fc:	0b3a0803 	bleq	e82910 <PHYS_OFFSET-0x7f17d6f0>
 900:	1349053b 	movtne	r0, #38203	; 0x953b
 904:	00000602 	andeq	r0, r0, r2, lsl #12
 908:	3f012e24 	svccc	0x00012e24
 90c:	3a0e030c 	bcc	381544 <PHYS_OFFSET-0x7fc7eabc>
 910:	27053b0b 	strcs	r3, [r5, -fp, lsl #22]
 914:	1113490c 	tstne	r3, ip, lsl #18
 918:	40011201 	andmi	r1, r1, r1, lsl #4
 91c:	0c429706 	mcrreq	7, 0, r9, r2, cr6
 920:	00001301 	andeq	r1, r0, r1, lsl #6
 924:	03003425 	movweq	r3, #1061	; 0x425
 928:	3b0b3a0e 	blcc	2cf168 <PHYS_OFFSET-0x7fd30e98>
 92c:	02134905 	andseq	r4, r3, #81920	; 0x14000
 930:	26000006 	strcs	r0, [r0], -r6
 934:	1331011d 	teqne	r1, #1073741831	; 0x40000007
 938:	01120111 	tsteq	r2, r1, lsl r1
 93c:	05590b58 	ldrbeq	r0, [r9, #-2904]	; 0xb58
 940:	00001301 	andeq	r1, r0, r1, lsl #6
 944:	11010b27 	tstne	r1, r7, lsr #22
 948:	01011201 	tsteq	r1, r1, lsl #4
 94c:	28000013 	stmdacs	r0, {r0, r1, r4}
 950:	0e030034 	mcreq	0, 0, r0, cr3, cr4, {1}
 954:	053b0b3a 	ldreq	r0, [fp, #-2874]!	; 0xb3a
 958:	0a021349 	beq	85684 <PHYS_OFFSET-0x7ff7a97c>
 95c:	01290000 	teqeq	r9, r0
 960:	01134901 	tsteq	r3, r1, lsl #18
 964:	2a000013 	bcs	9b8 <PHYS_OFFSET-0x7ffff648>
 968:	13490021 	movtne	r0, #36897	; 0x9021
 96c:	0000052f 	andeq	r0, r0, pc, lsr #10
 970:	4900212b 	stmdbmi	r0, {r0, r1, r3, r5, r8, sp}
 974:	000b2f13 	andeq	r2, fp, r3, lsl pc
 978:	012e2c00 	teqeq	lr, r0, lsl #24
 97c:	0e030c3f 	mcreq	12, 0, r0, cr3, cr15, {1}
 980:	0b3b0b3a 	bleq	ec3670 <PHYS_OFFSET-0x7f13c990>
 984:	0c3c0c27 	ldceq	12, cr0, [ip], #-156	; 0xffffff64
 988:	00001301 	andeq	r1, r0, r1, lsl #6
 98c:	4900052d 	stmdbmi	r0, {r0, r2, r3, r5, r8, sl}
 990:	2e000013 	mcrcs	0, 0, r0, cr0, cr3, {0}
 994:	0c3f012e 	ldfeqs	f0, [pc], #-184	; 8e4 <PHYS_OFFSET-0x7ffff71c>
 998:	0b3a0e03 	bleq	e841ac <PHYS_OFFSET-0x7f17be54>
 99c:	0c270b3b 	stceq	11, cr0, [r7], #-236	; 0xffffff14
 9a0:	00000c3c 	andeq	r0, r0, ip, lsr ip
 9a4:	01110100 	tsteq	r1, r0, lsl #2
 9a8:	0b130e25 	bleq	4c4244 <PHYS_OFFSET-0x7fb3bdbc>
 9ac:	0e1b0e03 	cdpeq	14, 1, cr0, cr11, cr3, {0}
 9b0:	01120111 	tsteq	r2, r1, lsl r1
 9b4:	00000610 	andeq	r0, r0, r0, lsl r6
 9b8:	0b010402 	bleq	419c8 <PHYS_OFFSET-0x7ffbe638>
 9bc:	3b0b3a0b 	blcc	2cf1f0 <PHYS_OFFSET-0x7fd30e10>
 9c0:	0013010b 	andseq	r0, r3, fp, lsl #2
 9c4:	00280300 	eoreq	r0, r8, r0, lsl #6
 9c8:	0d1c0e03 	ldceq	14, cr0, [ip, #-12]
 9cc:	16040000 	strne	r0, [r4], -r0
 9d0:	3a0e0300 	bcc	3815d8 <PHYS_OFFSET-0x7fc7ea28>
 9d4:	490b3b0b 	stmdbmi	fp, {r0, r1, r3, r8, r9, fp, ip, sp}
 9d8:	05000013 	streq	r0, [r0, #-19]
 9dc:	0c3f002e 	ldceq	0, cr0, [pc], #-184	; 92c <PHYS_OFFSET-0x7ffff6d4>
 9e0:	0b3a0e03 	bleq	e841f4 <PHYS_OFFSET-0x7f17be0c>
 9e4:	0c270b3b 	stceq	11, cr0, [r7], #-236	; 0xffffff14
 9e8:	01111349 	tsteq	r1, r9, asr #6
 9ec:	0a400112 	beq	1000e3c <PHYS_OFFSET-0x7efff1c4>
 9f0:	000c4297 	muleq	ip, r7, r2
 9f4:	11010000 	mrsne	r0, (UNDEF: 1)
 9f8:	130e2501 	movwne	r2, #58625	; 0xe501
 9fc:	1b0e030b 	blne	381630 <PHYS_OFFSET-0x7fc7e9d0>
 a00:	1201110e 	andne	r1, r1, #-2147483645	; 0x80000003
 a04:	00061001 	andeq	r1, r6, r1
 a08:	01040200 	mrseq	r0, R12_usr
 a0c:	0b3a0b0b 	bleq	e83640 <PHYS_OFFSET-0x7f17c9c0>
 a10:	13010b3b 	movwne	r0, #6971	; 0x1b3b
 a14:	28030000 	stmdacs	r3, {}	; <UNPREDICTABLE>
 a18:	1c0e0300 	stcne	3, cr0, [lr], {-0}
 a1c:	0400000d 	streq	r0, [r0], #-13
 a20:	0e030016 	mcreq	0, 0, r0, cr3, cr6, {0}
 a24:	0b3b0b3a 	bleq	ec3714 <PHYS_OFFSET-0x7f13c8ec>
 a28:	00001349 	andeq	r1, r0, r9, asr #6
 a2c:	0b002405 	bleq	9a48 <PHYS_OFFSET-0x7fff65b8>
 a30:	030b3e0b 	movweq	r3, #48651	; 0xbe0b
 a34:	0600000e 	streq	r0, [r0], -lr
 a38:	0c3f012e 	ldfeqs	f0, [pc], #-184	; 988 <PHYS_OFFSET-0x7ffff678>
 a3c:	0b3a0e03 	bleq	e84250 <PHYS_OFFSET-0x7f17bdb0>
 a40:	0c270b3b 	stceq	11, cr0, [r7], #-236	; 0xffffff14
 a44:	01120111 	tsteq	r2, r1, lsl r1
 a48:	42970640 	addsmi	r0, r7, #67108864	; 0x4000000
 a4c:	0013010c 	andseq	r0, r3, ip, lsl #2
 a50:	00340700 	eorseq	r0, r4, r0, lsl #14
 a54:	0b3a0e03 	bleq	e84268 <PHYS_OFFSET-0x7f17bd98>
 a58:	13490b3b 	movtne	r0, #39739	; 0x9b3b
 a5c:	00000602 	andeq	r0, r0, r2, lsl #12
 a60:	03003408 	movweq	r3, #1032	; 0x408
 a64:	3b0b3a0e 	blcc	2cf2a4 <PHYS_OFFSET-0x7fd30d5c>
 a68:	0213490b 	andseq	r4, r3, #180224	; 0x2c000
 a6c:	0900000a 	stmdbeq	r0, {r1, r3}
 a70:	0c3f012e 	ldfeqs	f0, [pc], #-184	; 9c0 <PHYS_OFFSET-0x7ffff640>
 a74:	0b3a0e03 	bleq	e84288 <PHYS_OFFSET-0x7f17bd78>
 a78:	13490b3b 	movtne	r0, #39739	; 0x9b3b
 a7c:	13010c3c 	movwne	r0, #7228	; 0x1c3c
 a80:	180a0000 	stmdane	sl, {}	; <UNPREDICTABLE>
 a84:	0b000000 	bleq	a8c <PHYS_OFFSET-0x7ffff574>
 a88:	0111010b 	tsteq	r1, fp, lsl #2
 a8c:	13010112 	movwne	r0, #4370	; 0x1112
 a90:	0b0c0000 	bleq	300a98 <PHYS_OFFSET-0x7fcff568>
 a94:	01065501 	tsteq	r6, r1, lsl #10
 a98:	0d000013 	stceq	0, cr0, [r0, #-76]	; 0xffffffb4
 a9c:	01018289 	smlabbeq	r1, r9, r2, r8
 aa0:	13310111 	teqne	r1, #1073741828	; 0x40000004
 aa4:	00001301 	andeq	r1, r0, r1, lsl #6
 aa8:	01828a0e 	orreq	r8, r2, lr, lsl #20
 aac:	910a0200 	mrsls	r0, R10_fiq
 ab0:	00000a42 	andeq	r0, r0, r2, asr #20
 ab4:	0182890f 	orreq	r8, r2, pc, lsl #18
 ab8:	95011101 	strls	r1, [r1, #-257]	; 0x101
 abc:	13310c42 	teqne	r1, #16896	; 0x4200
 ac0:	89100000 	ldmdbhi	r0, {}	; <UNPREDICTABLE>
 ac4:	11010182 	smlabbne	r1, r2, r1, r0
 ac8:	00133101 	andseq	r3, r3, r1, lsl #2
 acc:	000f1100 	andeq	r1, pc, r0, lsl #2
 ad0:	13490b0b 	movtne	r0, #39691	; 0x9b0b
 ad4:	24120000 	ldrcs	r0, [r2], #-0
 ad8:	3e0b0b00 	vmlacc.f64	d0, d11, d0
 adc:	0008030b 	andeq	r0, r8, fp, lsl #6
 ae0:	012e1300 	teqeq	lr, r0, lsl #6
 ae4:	0e030c3f 	mcreq	12, 0, r0, cr3, cr15, {1}
 ae8:	0b3b0b3a 	bleq	ec37d8 <PHYS_OFFSET-0x7f13c828>
 aec:	13490c27 	movtne	r0, #39975	; 0x9c27
 af0:	01120111 	tsteq	r2, r1, lsl r1
 af4:	42970640 	addsmi	r0, r7, #67108864	; 0x4000000
 af8:	0013010c 	andseq	r0, r3, ip, lsl #2
 afc:	82891400 	addhi	r1, r9, #0
 b00:	01110001 	tsteq	r1, r1
 b04:	00001331 	andeq	r1, r0, r1, lsr r3
 b08:	3f012e15 	svccc	0x00012e15
 b0c:	3a0e030c 	bcc	381744 <PHYS_OFFSET-0x7fc7e8bc>
 b10:	490b3b0b 	stmdbmi	fp, {r0, r1, r3, r8, r9, fp, ip, sp}
 b14:	000c3c13 	andeq	r3, ip, r3, lsl ip
 b18:	11010000 	mrsne	r0, (UNDEF: 1)
 b1c:	130e2501 	movwne	r2, #58625	; 0xe501
 b20:	1b0e030b 	blne	381754 <PHYS_OFFSET-0x7fc7e8ac>
 b24:	1201110e 	andne	r1, r1, #-2147483645	; 0x80000003
 b28:	00061001 	andeq	r1, r6, r1
 b2c:	01040200 	mrseq	r0, R12_usr
 b30:	0b3a0b0b 	bleq	e83764 <PHYS_OFFSET-0x7f17c89c>
 b34:	13010b3b 	movwne	r0, #6971	; 0x1b3b
 b38:	28030000 	stmdacs	r3, {}	; <UNPREDICTABLE>
 b3c:	1c0e0300 	stcne	3, cr0, [lr], {-0}
 b40:	0400000d 	streq	r0, [r0], #-13
 b44:	0e030016 	mcreq	0, 0, r0, cr3, cr6, {0}
 b48:	0b3b0b3a 	bleq	ec3838 <PHYS_OFFSET-0x7f13c7c8>
 b4c:	00001349 	andeq	r1, r0, r9, asr #6
 b50:	3f012e05 	svccc	0x00012e05
 b54:	3a0e030c 	bcc	38178c <PHYS_OFFSET-0x7fc7e874>
 b58:	270b3b0b 	strcs	r3, [fp, -fp, lsl #22]
 b5c:	1113490c 	tstne	r3, ip, lsl #18
 b60:	40011201 	andmi	r1, r1, r1, lsl #4
 b64:	0c42970a 	mcrreq	7, 0, r9, r2, cr10
 b68:	00001301 	andeq	r1, r0, r1, lsl #6
 b6c:	03003406 	movweq	r3, #1030	; 0x406
 b70:	3b0b3a08 	blcc	2cf398 <PHYS_OFFSET-0x7fd30c68>
 b74:	1c13490b 	ldcne	9, cr4, [r3], {11}
 b78:	0700000d 	streq	r0, [r0, -sp]
 b7c:	00018289 	andeq	r8, r1, r9, lsl #5
 b80:	42950111 	addsmi	r0, r5, #1073741828	; 0x40000004
 b84:	0013310c 	andseq	r3, r3, ip, lsl #2
 b88:	002e0800 	eoreq	r0, lr, r0, lsl #16
 b8c:	0e030c3f 	mcreq	12, 0, r0, cr3, cr15, {1}
 b90:	0b3b0b3a 	bleq	ec3880 <PHYS_OFFSET-0x7f13c780>
 b94:	13490c27 	movtne	r0, #39975	; 0x9c27
 b98:	00000c3c 	andeq	r0, r0, ip, lsr ip
	...

Disassembly of section .debug_aranges:

00000000 <.debug_aranges>:
   0:	0000001c 	andeq	r0, r0, ip, lsl r0
   4:	00000002 	andeq	r0, r0, r2
   8:	00040000 	andeq	r0, r4, r0
   c:	00000000 	andeq	r0, r0, r0
  10:	f0000000 			; <UNDEFINED> instruction: 0xf0000000
  14:	000001e0 	andeq	r0, r0, r0, ror #3
	...
  20:	0000001c 	andeq	r0, r0, ip, lsl r0
  24:	00550002 	subseq	r0, r5, r2
  28:	00040000 	andeq	r0, r4, r0
  2c:	00000000 	andeq	r0, r0, r0
  30:	f00001e0 			; <UNDEFINED> instruction: 0xf00001e0
  34:	0000014c 	andeq	r0, r0, ip, asr #2
	...
  40:	0000001c 	andeq	r0, r0, ip, lsl r0
  44:	00ad0002 	adceq	r0, sp, r2
  48:	00040000 	andeq	r0, r4, r0
  4c:	00000000 	andeq	r0, r0, r0
  50:	f0000340 			; <UNDEFINED> instruction: 0xf0000340
  54:	000000b0 	strheq	r0, [r0], -r0	; <UNPREDICTABLE>
	...
  60:	0000001c 	andeq	r0, r0, ip, lsl r0
  64:	02bb0002 	adcseq	r0, fp, #2
  68:	00040000 	andeq	r0, r4, r0
  6c:	00000000 	andeq	r0, r0, r0
  70:	f00003f0 			; <UNDEFINED> instruction: 0xf00003f0
  74:	00000300 	andeq	r0, r0, r0, lsl #6
	...
  80:	0000001c 	andeq	r0, r0, ip, lsl r0
  84:	071d0002 	ldreq	r0, [sp, -r2]
  88:	00040000 	andeq	r0, r4, r0
  8c:	00000000 	andeq	r0, r0, r0
  90:	f00006f0 			; <UNDEFINED> instruction: 0xf00006f0
  94:	0000036c 	andeq	r0, r0, ip, ror #6
	...
  a0:	0000001c 	andeq	r0, r0, ip, lsl r0
  a4:	12440002 	subne	r0, r4, #2
  a8:	00040000 	andeq	r0, r4, r0
  ac:	00000000 	andeq	r0, r0, r0
  b0:	f0000a5c 			; <UNDEFINED> instruction: 0xf0000a5c
  b4:	00000018 	andeq	r0, r0, r8, lsl r0
	...
  c0:	0000001c 	andeq	r0, r0, ip, lsl r0
  c4:	12e60002 	rscne	r0, r6, #2
  c8:	00040000 	andeq	r0, r4, r0
  cc:	00000000 	andeq	r0, r0, r0
  d0:	f0000a74 			; <UNDEFINED> instruction: 0xf0000a74
  d4:	000000b0 	strheq	r0, [r0], -r0	; <UNPREDICTABLE>
	...
  e0:	0000001c 	andeq	r0, r0, ip, lsl r0
  e4:	14c30002 	strbne	r0, [r3], #2
  e8:	00040000 	andeq	r0, r4, r0
  ec:	00000000 	andeq	r0, r0, r0
  f0:	f0000b24 			; <UNDEFINED> instruction: 0xf0000b24
  f4:	00000858 	andeq	r0, r0, r8, asr r8
	...
 100:	0000001c 	andeq	r0, r0, ip, lsl r0
 104:	27910002 	ldrcs	r0, [r1, r2]
 108:	00040000 	andeq	r0, r4, r0
 10c:	00000000 	andeq	r0, r0, r0
 110:	f000137c 			; <UNDEFINED> instruction: 0xf000137c
 114:	00000008 	andeq	r0, r0, r8
	...
 120:	0000001c 	andeq	r0, r0, ip, lsl r0
 124:	27f00002 	ldrbcs	r0, [r0, r2]!
 128:	00040000 	andeq	r0, r4, r0
 12c:	00000000 	andeq	r0, r0, r0
 130:	f0001384 			; <UNDEFINED> instruction: 0xf0001384
 134:	00000160 	andeq	r0, r0, r0, ror #2
	...
 140:	0000001c 	andeq	r0, r0, ip, lsl r0
 144:	2c3b0002 	ldccs	0, cr0, [fp], #-8
 148:	00040000 	andeq	r0, r4, r0
 14c:	00000000 	andeq	r0, r0, r0
 150:	f00014e4 			; <UNDEFINED> instruction: 0xf00014e4
 154:	00000004 	andeq	r0, r0, r4
	...

Disassembly of section .debug_loc:

00000000 <.debug_loc>:
       0:	00000000 	andeq	r0, r0, r0
       4:	00000008 	andeq	r0, r0, r8
       8:	007d0002 	rsbseq	r0, sp, r2
       c:	00000008 	andeq	r0, r0, r8
      10:	00000034 	andeq	r0, r0, r4, lsr r0
      14:	087d0002 	ldmdaeq	sp!, {r1}^
	...
      20:	00000034 	andeq	r0, r0, r4, lsr r0
      24:	00000038 	andeq	r0, r0, r8, lsr r0
      28:	007d0002 	rsbseq	r0, sp, r2
      2c:	00000038 	andeq	r0, r0, r8, lsr r0
      30:	000000b0 	strheq	r0, [r0], -r0	; <UNPREDICTABLE>
      34:	107d0002 	rsbsne	r0, sp, r2
	...
      40:	00000034 	andeq	r0, r0, r4, lsr r0
      44:	00000060 	andeq	r0, r0, r0, rrx
      48:	9f300002 	svcls	0x00300002
	...
      54:	00000004 	andeq	r0, r0, r4
      58:	0000000c 	andeq	r0, r0, ip
      5c:	7f720003 	svcvc	0x00720003
      60:	0000009f 	muleq	r0, pc, r0	; <UNPREDICTABLE>
      64:	00000000 	andeq	r0, r0, r0
      68:	00000400 	andeq	r0, r0, r0, lsl #8
      6c:	00000c00 	andeq	r0, r0, r0, lsl #24
      70:	50000100 	andpl	r0, r0, r0, lsl #2
	...
      7c:	00000004 	andeq	r0, r0, r4
      80:	0000000c 	andeq	r0, r0, ip
      84:	00510001 	subseq	r0, r1, r1
      88:	00000000 	andeq	r0, r0, r0
      8c:	24000000 	strcs	r0, [r0], #-0
      90:	5c000000 	stcpl	0, cr0, [r0], {-0}
      94:	01000000 	mrseq	r0, (UNDEF: 0)
      98:	005c5100 	subseq	r5, ip, r0, lsl #2
      9c:	00840000 	addeq	r0, r4, r0
      a0:	00040000 	andeq	r0, r4, r0
      a4:	9f5101f3 	svcls	0x005101f3
      a8:	00000084 	andeq	r0, r0, r4, lsl #1
      ac:	00000088 	andeq	r0, r0, r8, lsl #1
      b0:	00510001 	subseq	r0, r1, r1
      b4:	00000000 	andeq	r0, r0, r0
      b8:	24000000 	strcs	r0, [r0], #-0
      bc:	70000000 	andvc	r0, r0, r0
      c0:	01000000 	mrseq	r0, (UNDEF: 0)
      c4:	00705200 	rsbseq	r5, r0, r0, lsl #4
      c8:	00840000 	addeq	r0, r4, r0
      cc:	00040000 	andeq	r0, r4, r0
      d0:	9f5201f3 	svcls	0x005201f3
      d4:	00000084 	andeq	r0, r0, r4, lsl #1
      d8:	00000088 	andeq	r0, r0, r8, lsl #1
      dc:	00520001 	subseq	r0, r2, r1
      e0:	00000000 	andeq	r0, r0, r0
      e4:	2c000000 	stccs	0, cr0, [r0], {-0}
      e8:	38000000 	stmdacc	r0, {}	; <UNPREDICTABLE>
      ec:	03000000 	movweq	r0, #0
      f0:	9f7f7200 	svcls	0x007f7200
      f4:	00000084 	andeq	r0, r0, r4, lsl #1
      f8:	00000088 	andeq	r0, r0, r8, lsl #1
      fc:	7f720003 	svcvc	0x00720003
     100:	0000009f 	muleq	r0, pc, r0	; <UNPREDICTABLE>
     104:	00000000 	andeq	r0, r0, r0
     108:	00002c00 	andeq	r2, r0, r0, lsl #24
     10c:	00003800 	andeq	r3, r0, r0, lsl #16
     110:	50000100 	andpl	r0, r0, r0, lsl #2
     114:	00000084 	andeq	r0, r0, r4, lsl #1
     118:	00000088 	andeq	r0, r0, r8, lsl #1
     11c:	00500001 	subseq	r0, r0, r1
     120:	00000000 	andeq	r0, r0, r0
     124:	2c000000 	stccs	0, cr0, [r0], {-0}
     128:	38000000 	stmdacc	r0, {}	; <UNPREDICTABLE>
     12c:	01000000 	mrseq	r0, (UNDEF: 0)
     130:	00845100 	addeq	r5, r4, r0, lsl #2
     134:	00880000 	addeq	r0, r8, r0
     138:	00010000 	andeq	r0, r1, r0
     13c:	00000051 	andeq	r0, r0, r1, asr r0
     140:	00000000 	andeq	r0, r0, r0
     144:	00005000 	andeq	r5, r0, r0
     148:	00006000 	andeq	r6, r0, r0
     14c:	52000100 	andpl	r0, r0, #0
     150:	00000060 	andeq	r0, r0, r0, rrx
     154:	00000070 	andeq	r0, r0, r0, ror r0
     158:	7f720003 	svcvc	0x00720003
     15c:	0000009f 	muleq	r0, pc, r0	; <UNPREDICTABLE>
     160:	00000000 	andeq	r0, r0, r0
     164:	00005000 	andeq	r5, r0, r0
     168:	00005c00 	andeq	r5, r0, r0, lsl #24
     16c:	51000100 	mrspl	r0, (UNDEF: 16)
     170:	0000005c 	andeq	r0, r0, ip, asr r0
     174:	00000084 	andeq	r0, r0, r4, lsl #1
     178:	01f30004 	mvnseq	r0, r4
     17c:	00009f51 	andeq	r9, r0, r1, asr pc
     180:	00000000 	andeq	r0, r0, r0
     184:	00500000 	subseq	r0, r0, r0
     188:	00840000 	addeq	r0, r4, r0
     18c:	00010000 	andeq	r0, r1, r0
     190:	00000050 	andeq	r0, r0, r0, asr r0
     194:	00000000 	andeq	r0, r0, r0
     198:	00006000 	andeq	r6, r0, r0
     19c:	00007000 	andeq	r7, r0, r0
     1a0:	5c000100 	stfpls	f0, [r0], {-0}
	...
     1ac:	00000060 	andeq	r0, r0, r0, rrx
     1b0:	0000006c 	andeq	r0, r0, ip, rrx
     1b4:	6c510001 	mrrcvs	0, 0, r0, r1, cr1
     1b8:	70000000 	andvc	r0, r0, r0
     1bc:	09000000 	stmdbeq	r0, {}	; <UNPREDICTABLE>
     1c0:	f3007200 	vhsub.u8	d7, d0, d0
     1c4:	31225101 	teqcc	r2, r1, lsl #2
     1c8:	00009f1c 	andeq	r9, r0, ip, lsl pc
     1cc:	00000000 	andeq	r0, r0, r0
     1d0:	00880000 	addeq	r0, r8, r0
     1d4:	00a80000 	adceq	r0, r8, r0
     1d8:	00010000 	andeq	r0, r1, r0
     1dc:	0000a850 	andeq	sl, r0, r0, asr r8
     1e0:	0000d000 	andeq	sp, r0, r0
     1e4:	f3000400 	vshl.u8	d0, d0, d0
     1e8:	d09f5001 	addsle	r5, pc, r1
     1ec:	d4000000 	strle	r0, [r0], #-0
     1f0:	01000000 	mrseq	r0, (UNDEF: 0)
     1f4:	00d45000 	sbcseq	r5, r4, r0
     1f8:	00d80000 	sbcseq	r0, r8, r0
     1fc:	00040000 	andeq	r0, r4, r0
     200:	9f5001f3 	svcls	0x005001f3
	...
     20c:	00000088 	andeq	r0, r0, r8, lsl #1
     210:	000000a8 	andeq	r0, r0, r8, lsr #1
     214:	d0520001 	subsle	r0, r2, r1
     218:	d8000000 	stmdale	r0, {}	; <UNPREDICTABLE>
     21c:	01000000 	mrseq	r0, (UNDEF: 0)
     220:	00005200 	andeq	r5, r0, r0, lsl #4
     224:	00000000 	andeq	r0, r0, r0
     228:	008c0000 	addeq	r0, ip, r0
     22c:	00c80000 	sbceq	r0, r8, r0
     230:	00010000 	andeq	r0, r1, r0
     234:	0000c850 	andeq	ip, r0, r0, asr r8
     238:	0000cc00 	andeq	ip, r0, r0, lsl #24
     23c:	73000300 	movwvc	r0, #768	; 0x300
     240:	00cc9f7f 	sbceq	r9, ip, pc, ror pc
     244:	00d40000 	sbcseq	r0, r4, r0
     248:	00010000 	andeq	r0, r1, r0
     24c:	0000d450 	andeq	sp, r0, r0, asr r4
     250:	0000d800 	andeq	sp, r0, r0, lsl #16
     254:	f3000400 	vshl.u8	d0, d0, d0
     258:	009f5001 	addseq	r5, pc, r1
     25c:	00000000 	andeq	r0, r0, r0
     260:	d8000000 	stmdale	r0, {}	; <UNPREDICTABLE>
     264:	00000000 	andeq	r0, r0, r0
     268:	01000001 	tsteq	r0, r1
     26c:	01005000 	mrseq	r5, (UNDEF: 0)
     270:	01040000 	mrseq	r0, (UNDEF: 4)
     274:	00040000 	andeq	r0, r4, r0
     278:	9f5001f3 	svcls	0x005001f3
     27c:	00000104 	andeq	r0, r0, r4, lsl #2
     280:	00000108 	andeq	r0, r0, r8, lsl #2
     284:	08500001 	ldmdaeq	r0, {r0}^
     288:	0c000001 	stceq	0, cr0, [r0], {1}
     28c:	04000001 	streq	r0, [r0], #-1
     290:	5001f300 	andpl	pc, r1, r0, lsl #6
     294:	0000009f 	muleq	r0, pc, r0	; <UNPREDICTABLE>
     298:	00000000 	andeq	r0, r0, r0
     29c:	0000d800 	andeq	sp, r0, r0, lsl #16
     2a0:	0000e800 	andeq	lr, r0, r0, lsl #16
     2a4:	50000100 	andpl	r0, r0, r0, lsl #2
     2a8:	000000ec 	andeq	r0, r0, ip, ror #1
     2ac:	00000104 	andeq	r0, r0, r4, lsl #2
     2b0:	04520001 	ldrbeq	r0, [r2], #-1
     2b4:	08000001 	stmdaeq	r0, {r0}
     2b8:	01000001 	tsteq	r0, r1
     2bc:	01085000 	mrseq	r5, (UNDEF: 8)
     2c0:	010c0000 	mrseq	r0, (UNDEF: 12)
     2c4:	00040000 	andeq	r0, r4, r0
     2c8:	9f5001f3 	svcls	0x005001f3
	...
     2d4:	0000010c 	andeq	r0, r0, ip, lsl #2
     2d8:	00000118 	andeq	r0, r0, r8, lsl r1
     2dc:	18510001 	ldmdane	r1, {r0}^
     2e0:	30000001 	andcc	r0, r0, r1
     2e4:	04000001 	streq	r0, [r0], #-1
     2e8:	5101f300 	mrspl	pc, SP_irq	; <UNPREDICTABLE>
     2ec:	0000009f 	muleq	r0, pc, r0	; <UNPREDICTABLE>
     2f0:	00000000 	andeq	r0, r0, r0
     2f4:	00010c00 	andeq	r0, r1, r0, lsl #24
     2f8:	00011000 	andeq	r1, r1, r0
     2fc:	52000100 	andpl	r0, r0, #0
     300:	00000110 	andeq	r0, r0, r0, lsl r1
     304:	0000011c 	andeq	r0, r0, ip, lsl r1
     308:	7f720003 	svcvc	0x00720003
     30c:	00011c9f 	muleq	r1, pc, ip	; <UNPREDICTABLE>
     310:	00012000 	andeq	r2, r1, r0
     314:	f3000600 	vmax.u8	d0, d0, d0
     318:	1c315201 	lfmne	f5, 4, [r1], #-4
     31c:	0000009f 	muleq	r0, pc, r0	; <UNPREDICTABLE>
     320:	00000000 	andeq	r0, r0, r0
     324:	00011000 	andeq	r1, r1, r0
     328:	00012000 	andeq	r2, r1, r0
     32c:	50000100 	andpl	r0, r0, r0, lsl #2
     330:	00000120 	andeq	r0, r0, r0, lsr #2
     334:	00000130 	andeq	r0, r0, r0, lsr r1
     338:	00530001 	subseq	r0, r3, r1
     33c:	00000000 	andeq	r0, r0, r0
     340:	30000000 	andcc	r0, r0, r0
     344:	38000001 	stmdacc	r0, {r0}
     348:	02000001 	andeq	r0, r0, #1
     34c:	38007d00 	stmdacc	r0, {r8, sl, fp, ip, sp, lr}
     350:	98000001 	stmdals	r0, {r0}
     354:	02000001 	andeq	r0, r0, #1
     358:	00047d00 	andeq	r7, r4, r0, lsl #26
     35c:	00000000 	andeq	r0, r0, r0
     360:	30000000 	andcc	r0, r0, r0
     364:	5c000001 	stcpl	0, cr0, [r0], {1}
     368:	01000001 	tsteq	r0, r1
     36c:	015c5000 	cmpeq	ip, r0
     370:	01980000 	orrseq	r0, r8, r0
     374:	00040000 	andeq	r0, r4, r0
     378:	9f5001f3 	svcls	0x005001f3
	...
     384:	00000130 	andeq	r0, r0, r0, lsr r1
     388:	0000015c 	andeq	r0, r0, ip, asr r1
     38c:	5c510001 	mrrcpl	0, 0, r0, r1, cr1
     390:	98000001 	stmdals	r0, {r0}
     394:	04000001 	streq	r0, [r0], #-1
     398:	5101f300 	mrspl	pc, SP_irq	; <UNPREDICTABLE>
     39c:	0000009f 	muleq	r0, pc, r0	; <UNPREDICTABLE>
     3a0:	00000000 	andeq	r0, r0, r0
     3a4:	00013000 	andeq	r3, r1, r0
     3a8:	00013400 	andeq	r3, r1, r0, lsl #8
     3ac:	52000100 	andpl	r0, r0, #0
     3b0:	00000134 	andeq	r0, r0, r4, lsr r1
     3b4:	0000015c 	andeq	r0, r0, ip, asr r1
     3b8:	7f720003 	svcvc	0x00720003
     3bc:	0000009f 	muleq	r0, pc, r0	; <UNPREDICTABLE>
     3c0:	00000000 	andeq	r0, r0, r0
     3c4:	00013400 	andeq	r3, r1, r0, lsl #8
     3c8:	00015c00 	andeq	r5, r1, r0, lsl #24
     3cc:	50000100 	andpl	r0, r0, r0, lsl #2
	...
     3d8:	00000134 	andeq	r0, r0, r4, lsr r1
     3dc:	0000015c 	andeq	r0, r0, ip, asr r1
     3e0:	00510001 	subseq	r0, r1, r1
     3e4:	00000000 	andeq	r0, r0, r0
     3e8:	98000000 	stmdals	r0, {}	; <UNPREDICTABLE>
     3ec:	c4000001 	strgt	r0, [r0], #-1
     3f0:	01000001 	tsteq	r0, r1
     3f4:	00005000 	andeq	r5, r0, r0
     3f8:	00000000 	andeq	r0, r0, r0
     3fc:	01980000 	orrseq	r0, r8, r0
     400:	01c80000 	biceq	r0, r8, r0
     404:	00010000 	andeq	r0, r1, r0
     408:	0001c851 	andeq	ip, r1, r1, asr r8
     40c:	0001dc00 	andeq	sp, r1, r0, lsl #24
     410:	73000300 	movwvc	r0, #768	; 0x300
     414:	01e49f7f 	mvneq	r9, pc, ror pc
     418:	02000000 	andeq	r0, r0, #0
     41c:	00010000 	andeq	r0, r1, r0
     420:	00000051 	andeq	r0, r0, r1, asr r0
     424:	00000000 	andeq	r0, r0, r0
     428:	00021000 	andeq	r1, r2, r0
     42c:	00021400 	andeq	r1, r2, r0, lsl #8
     430:	7d000200 	sfmvc	f0, 4, [r0, #-0]
     434:	00021400 	andeq	r1, r2, r0, lsl #8
     438:	0002c000 	andeq	ip, r2, r0
     43c:	7d000200 	sfmvc	f0, 4, [r0, #-0]
     440:	00000004 	andeq	r0, r0, r4
     444:	00000000 	andeq	r0, r0, r0
     448:	00021000 	andeq	r1, r2, r0
     44c:	00024c00 	andeq	r4, r2, r0, lsl #24
     450:	50000100 	andpl	r0, r0, r0, lsl #2
	...
     45c:	00000210 	andeq	r0, r0, r0, lsl r2
     460:	00000250 	andeq	r0, r0, r0, asr r2
     464:	50510001 	subspl	r0, r1, r1
     468:	70000002 	andvc	r0, r0, r2
     46c:	03000002 	movweq	r0, #2
     470:	9f7f7300 	svcls	0x007f7300
     474:	00000278 	andeq	r0, r0, r8, ror r2
     478:	000002a0 	andeq	r0, r0, r0, lsr #5
     47c:	00510001 	subseq	r0, r1, r1
     480:	00000000 	andeq	r0, r0, r0
     484:	10000000 	andne	r0, r0, r0
     488:	34000002 	strcc	r0, [r0], #-2
     48c:	01000002 	tsteq	r0, r2
     490:	02345200 	eorseq	r5, r4, #0
     494:	024c0000 	subeq	r0, ip, #0
     498:	00010000 	andeq	r0, r1, r0
     49c:	00024c52 	andeq	r4, r2, r2, asr ip
     4a0:	00026400 	andeq	r6, r2, r0, lsl #8
     4a4:	54000100 	strpl	r0, [r0], #-256	; 0x100
     4a8:	00000264 	andeq	r0, r0, r4, ror #4
     4ac:	0000027c 	andeq	r0, r0, ip, ror r2
     4b0:	7c520001 	mrrcvc	0, 0, r0, r2, cr1
     4b4:	84000002 	strhi	r0, [r0], #-2
     4b8:	01000002 	tsteq	r0, r2
     4bc:	02845400 	addeq	r5, r4, #0
     4c0:	02c00000 	sbceq	r0, r0, #0
     4c4:	00010000 	andeq	r0, r1, r0
     4c8:	00000052 	andeq	r0, r0, r2, asr r0
     4cc:	00000000 	andeq	r0, r0, r0
     4d0:	0002c000 	andeq	ip, r2, r0
     4d4:	0002dc00 	andeq	sp, r2, r0, lsl #24
     4d8:	50000100 	andpl	r0, r0, r0, lsl #2
     4dc:	000002dc 	ldrdeq	r0, [r0], -ip
     4e0:	00000300 	andeq	r0, r0, r0, lsl #6
     4e4:	01f30004 	mvnseq	r0, r4
     4e8:	00009f50 	andeq	r9, r0, r0, asr pc
     4ec:	00000000 	andeq	r0, r0, r0
     4f0:	02c00000 	sbceq	r0, r0, #0
     4f4:	02f80000 	rscseq	r0, r8, #0
     4f8:	00010000 	andeq	r0, r1, r0
     4fc:	0002fc50 	andeq	pc, r2, r0, asr ip	; <UNPREDICTABLE>
     500:	00030000 	andeq	r0, r3, r0
     504:	50000100 	andpl	r0, r0, r0, lsl #2
	...
     514:	00000004 	andeq	r0, r0, r4
     518:	007d0002 	rsbseq	r0, sp, r2
     51c:	00000004 	andeq	r0, r0, r4
     520:	000000c0 	andeq	r0, r0, r0, asr #1
     524:	107d0002 	rsbsne	r0, sp, r2
	...
     534:	0000000c 	andeq	r0, r0, ip
     538:	0c500001 	mrrceq	0, 0, r0, r0, cr1	; <UNPREDICTABLE>
     53c:	88000000 	stmdahi	r0, {}	; <UNPREDICTABLE>
     540:	01000000 	mrseq	r0, (UNDEF: 0)
     544:	00885400 	addeq	r5, r8, r0, lsl #8
     548:	00ac0000 	adceq	r0, ip, r0
     54c:	00040000 	andeq	r0, r4, r0
     550:	9f5001f3 	svcls	0x005001f3
     554:	000000ac 	andeq	r0, r0, ip, lsr #1
     558:	000000c0 	andeq	r0, r0, r0, asr #1
     55c:	00540001 	subseq	r0, r4, r1
	...
     568:	38000000 	stmdacc	r0, {}	; <UNPREDICTABLE>
     56c:	02000000 	andeq	r0, r0, #0
     570:	389f3000 	ldmcc	pc, {ip, sp}	; <UNPREDICTABLE>
     574:	84000000 	strhi	r0, [r0], #-0
     578:	01000000 	mrseq	r0, (UNDEF: 0)
     57c:	008c5c00 	addeq	r5, ip, r0, lsl #24
     580:	00ac0000 	adceq	r0, ip, r0
     584:	00010000 	andeq	r0, r1, r0
     588:	0000ac54 	andeq	sl, r0, r4, asr ip
     58c:	0000c000 	andeq	ip, r0, r0
     590:	30000200 	andcc	r0, r0, r0, lsl #4
     594:	0000009f 	muleq	r0, pc, r0	; <UNPREDICTABLE>
	...
     5a0:	00003800 	andeq	r3, r0, r0, lsl #16
     5a4:	30000200 	andcc	r0, r0, r0, lsl #4
     5a8:	0000389f 	muleq	r0, pc, r8	; <UNPREDICTABLE>
     5ac:	00008400 	andeq	r8, r0, r0, lsl #8
     5b0:	5c000100 	stfpls	f0, [r0], {-0}
     5b4:	000000ac 	andeq	r0, r0, ip, lsr #1
     5b8:	000000c0 	andeq	r0, r0, r0, asr #1
     5bc:	9f300002 	svcls	0x00300002
	...
     5c8:	0000005c 	andeq	r0, r0, ip, asr r0
     5cc:	00000070 	andeq	r0, r0, r0, ror r0
     5d0:	70530001 	subsvc	r0, r3, r1
     5d4:	74000000 	strvc	r0, [r0], #-0
     5d8:	03000000 	movweq	r0, #0
     5dc:	9f7f7200 	svcls	0x007f7200
	...
     5e8:	000000c0 	andeq	r0, r0, r0, asr #1
     5ec:	000000c4 	andeq	r0, r0, r4, asr #1
     5f0:	007d0002 	rsbseq	r0, sp, r2
     5f4:	000000c4 	andeq	r0, r0, r4, asr #1
     5f8:	00000148 	andeq	r0, r0, r8, asr #2
     5fc:	107d0002 	rsbsne	r0, sp, r2
	...
     608:	000000c0 	andeq	r0, r0, r0, asr #1
     60c:	000000d0 	ldrdeq	r0, [r0], -r0	; <UNPREDICTABLE>
     610:	d0500001 	subsle	r0, r0, r1
     614:	48000000 	stmdami	r0, {}	; <UNPREDICTABLE>
     618:	01000001 	tsteq	r0, r1
     61c:	00005500 	andeq	r5, r0, r0, lsl #10
     620:	00000000 	andeq	r0, r0, r0
     624:	014c0000 	mrseq	r0, (UNDEF: 76)
     628:	01500000 	cmpeq	r0, r0
     62c:	00020000 	andeq	r0, r2, r0
     630:	0150007d 	cmpeq	r0, sp, ror r0
     634:	01580000 	cmpeq	r8, r0
     638:	00020000 	andeq	r0, r2, r0
     63c:	0000087d 	andeq	r0, r0, sp, ror r8
     640:	00000000 	andeq	r0, r0, r0
     644:	014c0000 	mrseq	r0, (UNDEF: 76)
     648:	01530000 	cmpeq	r3, r0
     64c:	00010000 	andeq	r0, r1, r0
     650:	00015350 	andeq	r5, r1, r0, asr r3
     654:	00015800 	andeq	r5, r1, r0, lsl #16
     658:	f3000400 	vshl.u8	d0, d0, d0
     65c:	009f5001 	addseq	r5, pc, r1
     660:	00000000 	andeq	r0, r0, r0
     664:	58000000 	stmdapl	r0, {}	; <UNPREDICTABLE>
     668:	5c000001 	stcpl	0, cr0, [r0], {1}
     66c:	02000001 	andeq	r0, r0, #1
     670:	5c007d00 	stcpl	13, cr7, [r0], {-0}
     674:	68000001 	stmdavs	r0, {r0}
     678:	02000002 	andeq	r0, r0, #2
     67c:	00187d00 	andseq	r7, r8, r0, lsl #26
     680:	00000000 	andeq	r0, r0, r0
     684:	58000000 	stmdapl	r0, {}	; <UNPREDICTABLE>
     688:	68000001 	stmdavs	r0, {r0}
     68c:	01000001 	tsteq	r0, r1
     690:	01685000 	cmneq	r8, r0
     694:	02680000 	rsbeq	r0, r8, #0
     698:	00010000 	andeq	r0, r1, r0
     69c:	00000054 	andeq	r0, r0, r4, asr r0
     6a0:	00000000 	andeq	r0, r0, r0
     6a4:	00026800 	andeq	r6, r2, r0, lsl #16
     6a8:	00026c00 	andeq	r6, r2, r0, lsl #24
     6ac:	7d000200 	sfmvc	f0, 4, [r0, #-0]
     6b0:	00026c00 	andeq	r6, r2, r0, lsl #24
     6b4:	0002dc00 	andeq	sp, r2, r0, lsl #24
     6b8:	7d000200 	sfmvc	f0, 4, [r0, #-0]
     6bc:	00000010 	andeq	r0, r0, r0, lsl r0
     6c0:	00000000 	andeq	r0, r0, r0
     6c4:	00028400 	andeq	r8, r2, r0, lsl #8
     6c8:	0002a800 	andeq	sl, r2, r0, lsl #16
     6cc:	03000600 	movweq	r0, #1536	; 0x600
     6d0:	f0002004 			; <UNDEFINED> instruction: 0xf0002004
     6d4:	0002a89f 	muleq	r2, pc, r8	; <UNPREDICTABLE>
     6d8:	0002dc00 	andeq	sp, r2, r0, lsl #24
     6dc:	03000600 	movweq	r0, #1536	; 0x600
     6e0:	f0002050 			; <UNDEFINED> instruction: 0xf0002050
     6e4:	0000009f 	muleq	r0, pc, r0	; <UNPREDICTABLE>
     6e8:	00000000 	andeq	r0, r0, r0
     6ec:	00026800 	andeq	r6, r2, r0, lsl #16
     6f0:	00028400 	andeq	r8, r2, r0, lsl #8
     6f4:	30000200 	andcc	r0, r0, r0, lsl #4
     6f8:	0002849f 	muleq	r2, pc, r4	; <UNPREDICTABLE>
     6fc:	0002a800 	andeq	sl, r2, r0, lsl #16
     700:	03000600 	movweq	r0, #1536	; 0x600
     704:	f0002004 			; <UNDEFINED> instruction: 0xf0002004
     708:	0002a89f 	muleq	r2, pc, r8	; <UNPREDICTABLE>
     70c:	0002dc00 	andeq	sp, r2, r0, lsl #24
     710:	03000600 	movweq	r0, #1536	; 0x600
     714:	f0002050 			; <UNDEFINED> instruction: 0xf0002050
     718:	0000009f 	muleq	r0, pc, r0	; <UNPREDICTABLE>
     71c:	00000000 	andeq	r0, r0, r0
     720:	0002dc00 	andeq	sp, r2, r0, lsl #24
     724:	0002e400 	andeq	lr, r2, r0, lsl #8
     728:	7d000200 	sfmvc	f0, 4, [r0, #-0]
     72c:	0002e400 	andeq	lr, r2, r0, lsl #8
     730:	00030c00 	andeq	r0, r3, r0, lsl #24
     734:	7d000200 	sfmvc	f0, 4, [r0, #-0]
     738:	00000008 	andeq	r0, r0, r8
     73c:	00000000 	andeq	r0, r0, r0
     740:	0002dc00 	andeq	sp, r2, r0, lsl #24
     744:	0002fc00 	andeq	pc, r2, r0, lsl #24
     748:	30000200 	andcc	r0, r0, r0, lsl #4
     74c:	0002fc9f 	muleq	r2, pc, ip	; <UNPREDICTABLE>
     750:	00030c00 	andeq	r0, r3, r0, lsl #24
     754:	03000600 	movweq	r0, #1536	; 0x600
     758:	f0002004 			; <UNDEFINED> instruction: 0xf0002004
     75c:	0000009f 	muleq	r0, pc, r0	; <UNPREDICTABLE>
     760:	00000000 	andeq	r0, r0, r0
     764:	00030c00 	andeq	r0, r3, r0, lsl #24
     768:	00031400 	andeq	r1, r3, r0, lsl #8
     76c:	7d000200 	sfmvc	f0, 4, [r0, #-0]
     770:	00031400 	andeq	r1, r3, r0, lsl #8
     774:	00032400 	andeq	r2, r3, r0, lsl #8
     778:	7d000200 	sfmvc	f0, 4, [r0, #-0]
     77c:	00000008 	andeq	r0, r0, r8
     780:	00000000 	andeq	r0, r0, r0
     784:	00032400 	andeq	r2, r3, r0, lsl #8
     788:	00032800 	andeq	r2, r3, r0, lsl #16
     78c:	7d000200 	sfmvc	f0, 4, [r0, #-0]
     790:	00032800 	andeq	r2, r3, r0, lsl #16
     794:	00036c00 	andeq	r6, r3, r0, lsl #24
     798:	7d000200 	sfmvc	f0, 4, [r0, #-0]
     79c:	00000008 	andeq	r0, r0, r8
     7a0:	00000000 	andeq	r0, r0, r0
     7a4:	00032400 	andeq	r2, r3, r0, lsl #8
     7a8:	00033400 	andeq	r3, r3, r0, lsl #8
     7ac:	09000300 	stmdbeq	r0, {r8, r9}
     7b0:	03389fff 	teqeq	r8, #1020	; 0x3fc
     7b4:	03400000 	movteq	r0, #0
     7b8:	00010000 	andeq	r0, r1, r0
     7bc:	00035450 	andeq	r5, r3, r0, asr r4
     7c0:	00035800 	andeq	r5, r3, r0, lsl #16
     7c4:	50000100 	andpl	r0, r0, r0, lsl #2
	...
     7d4:	00000008 	andeq	r0, r0, r8
     7d8:	007d0002 	rsbseq	r0, sp, r2
     7dc:	00000008 	andeq	r0, r0, r8
     7e0:	00000018 	andeq	r0, r0, r8, lsl r0
     7e4:	087d0002 	ldmdaeq	sp!, {r1}^
	...
     7f4:	00000014 	andeq	r0, r0, r4, lsl r0
     7f8:	00500001 	subseq	r0, r0, r1
     7fc:	00000000 	andeq	r0, r0, r0
     800:	70000000 	andvc	r0, r0, r0
     804:	78000000 	stmdavc	r0, {}	; <UNPREDICTABLE>
     808:	01000000 	mrseq	r0, (UNDEF: 0)
     80c:	00785200 	rsbseq	r5, r8, r0, lsl #4
     810:	00840000 	addeq	r0, r4, r0
     814:	00010000 	andeq	r0, r1, r0
     818:	00008451 	andeq	r8, r0, r1, asr r4
     81c:	00009400 	andeq	r9, r0, r0, lsl #8
     820:	72001600 	andvc	r1, r0, #0
     824:	72307237 	eorsvc	r7, r0, #1879048195	; 0x70000003
     828:	244b4000 	strbcs	r4, [fp], #-0
     82c:	00090c22 	andeq	r0, r9, r2, lsr #24
     830:	282b8000 	stmdacs	fp!, {pc}
     834:	13160001 	tstne	r6, #1
     838:	0000009f 	muleq	r0, pc, r0	; <UNPREDICTABLE>
     83c:	00000000 	andeq	r0, r0, r0
     840:	00003800 	andeq	r3, r0, r0, lsl #16
     844:	00004800 	andeq	r4, r0, r0, lsl #16
     848:	03000600 	movweq	r0, #1536	; 0x600
     84c:	f0001788 			; <UNDEFINED> instruction: 0xf0001788
     850:	0000009f 	muleq	r0, pc, r0	; <UNPREDICTABLE>
     854:	00000000 	andeq	r0, r0, r0
     858:	00009400 	andeq	r9, r0, r0, lsl #8
     85c:	00009800 	andeq	r9, r0, r0, lsl #16
     860:	7d000200 	sfmvc	f0, 4, [r0, #-0]
     864:	00009800 	andeq	r9, r0, r0, lsl #16
     868:	0000b000 	andeq	fp, r0, r0
     86c:	7d000200 	sfmvc	f0, 4, [r0, #-0]
     870:	00000008 	andeq	r0, r0, r8
     874:	00000000 	andeq	r0, r0, r0
     878:	00009400 	andeq	r9, r0, r0, lsl #8
     87c:	0000a000 	andeq	sl, r0, r0
     880:	50000600 	andpl	r0, r0, r0, lsl #12
     884:	93510493 	cmpls	r1, #-1828716544	; 0x93000000
     888:	0000a004 	andeq	sl, r0, r4
     88c:	0000b000 	andeq	fp, r0, r0
     890:	f3000600 	vmax.u8	d0, d0, d0
     894:	2500f503 	strcs	pc, [r0, #-1283]	; 0x503
     898:	0000009f 	muleq	r0, pc, r0	; <UNPREDICTABLE>
	...
     8a4:	00000c00 	andeq	r0, r0, r0, lsl #24
     8a8:	50000100 	andpl	r0, r0, r0, lsl #2
     8ac:	0000000c 	andeq	r0, r0, ip
     8b0:	00000018 	andeq	r0, r0, r8, lsl r0
     8b4:	01f30004 	mvnseq	r0, r4
     8b8:	00009f50 	andeq	r9, r0, r0, asr pc
	...
     8c4:	000c0000 	andeq	r0, ip, r0
     8c8:	00020000 	andeq	r0, r2, r0
     8cc:	000c9f30 	andeq	r9, ip, r0, lsr pc
     8d0:	00180000 	andseq	r0, r8, r0
     8d4:	00010000 	andeq	r0, r1, r0
     8d8:	00000050 	andeq	r0, r0, r0, asr r0
     8dc:	00000000 	andeq	r0, r0, r0
     8e0:	00001c00 	andeq	r1, r0, r0, lsl #24
     8e4:	00002400 	andeq	r2, r0, r0, lsl #8
     8e8:	53000100 	movwpl	r0, #256	; 0x100
	...
     8f4:	00000030 	andeq	r0, r0, r0, lsr r0
     8f8:	00000034 	andeq	r0, r0, r4, lsr r0
     8fc:	007d0002 	rsbseq	r0, sp, r2
     900:	00000034 	andeq	r0, r0, r4, lsr r0
     904:	0000003c 	andeq	r0, r0, ip, lsr r0
     908:	247d0002 	ldrbtcs	r0, [sp], #-2
     90c:	0000003c 	andeq	r0, r0, ip, lsr r0
     910:	0000011c 	andeq	r0, r0, ip, lsl r1
     914:	307d0002 	rsbscc	r0, sp, r2
	...
     920:	00000030 	andeq	r0, r0, r0, lsr r0
     924:	00000058 	andeq	r0, r0, r8, asr r0
     928:	58500001 	ldmdapl	r0, {r0}^
     92c:	1c000000 	stcne	0, cr0, [r0], {-0}
     930:	04000001 	streq	r0, [r0], #-1
     934:	5001f300 	andpl	pc, r1, r0, lsl #6
     938:	0000009f 	muleq	r0, pc, r0	; <UNPREDICTABLE>
     93c:	00000000 	andeq	r0, r0, r0
     940:	00003000 	andeq	r3, r0, r0
     944:	00006b00 	andeq	r6, r0, r0, lsl #22
     948:	51000100 	mrspl	r0, (UNDEF: 16)
     94c:	0000006b 	andeq	r0, r0, fp, rrx
     950:	000000b4 	strheq	r0, [r0], -r4
     954:	b45a0001 	ldrblt	r0, [sl], #-1
     958:	1c000000 	stcne	0, cr0, [r0], {-0}
     95c:	04000001 	streq	r0, [r0], #-1
     960:	5101f300 	mrspl	pc, SP_irq	; <UNPREDICTABLE>
     964:	0000009f 	muleq	r0, pc, r0	; <UNPREDICTABLE>
     968:	00000000 	andeq	r0, r0, r0
     96c:	00005c00 	andeq	r5, r0, r0, lsl #24
     970:	00008800 	andeq	r8, r0, r0, lsl #16
     974:	56000600 	strpl	r0, [r0], -r0, lsl #12
     978:	93570493 	cmpls	r7, #-1828716544	; 0x93000000
     97c:	00009404 	andeq	r9, r0, r4, lsl #8
     980:	0000b800 	andeq	fp, r0, r0, lsl #16
     984:	56000600 	strpl	r0, [r0], -r0, lsl #12
     988:	93570493 	cmpls	r7, #-1828716544	; 0x93000000
     98c:	0000b804 	andeq	fp, r0, r4, lsl #16
     990:	0000c400 	andeq	ip, r0, r0, lsl #8
     994:	58000600 	stmdapl	r0, {r9, sl}
     998:	93590493 	cmpls	r9, #-1828716544	; 0x93000000
     99c:	0000c804 	andeq	ip, r0, r4, lsl #16
     9a0:	0000f000 	andeq	pc, r0, r0
     9a4:	58000600 	stmdapl	r0, {r9, sl}
     9a8:	93590493 	cmpls	r9, #-1828716544	; 0x93000000
     9ac:	0000f004 	andeq	pc, r0, r4
     9b0:	00011c00 	andeq	r1, r1, r0, lsl #24
     9b4:	56000600 	strpl	r0, [r0], -r0, lsl #12
     9b8:	93570493 	cmpls	r7, #-1828716544	; 0x93000000
     9bc:	00000004 	andeq	r0, r0, r4
     9c0:	00000000 	andeq	r0, r0, r0
     9c4:	00004400 	andeq	r4, r0, r0, lsl #8
     9c8:	00006b00 	andeq	r6, r0, r0, lsl #22
     9cc:	53000100 	movwpl	r0, #256	; 0x100
	...
     9d8:	00000044 	andeq	r0, r0, r4, asr #32
     9dc:	0000006b 	andeq	r0, r0, fp, rrx
     9e0:	6b520001 	blvs	14809ec <PHYS_OFFSET-0x7eb7f614>
     9e4:	1c000000 	stcne	0, cr0, [r0], {-0}
     9e8:	01000001 	tsteq	r0, r1
     9ec:	00005500 	andeq	r5, r0, r0, lsl #10
     9f0:	00000000 	andeq	r0, r0, r0
     9f4:	00e40000 	rsceq	r0, r4, r0
     9f8:	00f70000 	rscseq	r0, r7, r0
     9fc:	00010000 	andeq	r0, r1, r0
     a00:	00000051 	andeq	r0, r0, r1, asr r0
     a04:	00000000 	andeq	r0, r0, r0
     a08:	0000e400 	andeq	lr, r0, r0, lsl #8
     a0c:	0000f700 	andeq	pc, r0, r0, lsl #14
     a10:	5e000100 	adfpls	f0, f0, f0
	...
     a1c:	0000011c 	andeq	r0, r0, ip, lsl r1
     a20:	00000124 	andeq	r0, r0, r4, lsr #2
     a24:	007d0002 	rsbseq	r0, sp, r2
     a28:	00000124 	andeq	r0, r0, r4, lsr #2
     a2c:	000001bc 			; <UNDEFINED> instruction: 0x000001bc
     a30:	107d0002 	rsbsne	r0, sp, r2
	...
     a3c:	0000011c 	andeq	r0, r0, ip, lsl r1
     a40:	00000134 	andeq	r0, r0, r4, lsr r1
     a44:	93520006 	cmpls	r2, #6
     a48:	04935304 	ldreq	r5, [r3], #772	; 0x304
     a4c:	00000134 	andeq	r0, r0, r4, lsr r1
     a50:	000001bc 			; <UNDEFINED> instruction: 0x000001bc
     a54:	03f30006 	mvnseq	r0, #6
     a58:	9f2502f5 	svcls	0x002502f5
	...
     a64:	000001bc 			; <UNDEFINED> instruction: 0x000001bc
     a68:	000001c4 	andeq	r0, r0, r4, asr #3
     a6c:	007d0002 	rsbseq	r0, sp, r2
     a70:	000001c4 	andeq	r0, r0, r4, asr #3
     a74:	000002b0 			; <UNDEFINED> instruction: 0x000002b0
     a78:	207d0002 	rsbscs	r0, sp, r2
	...
     a84:	000001bc 			; <UNDEFINED> instruction: 0x000001bc
     a88:	000001e3 	andeq	r0, r0, r3, ror #3
     a8c:	93520006 	cmpls	r2, #6
     a90:	04935304 	ldreq	r5, [r3], #772	; 0x304
     a94:	000001e3 	andeq	r0, r0, r3, ror #3
     a98:	000002b0 			; <UNDEFINED> instruction: 0x000002b0
     a9c:	03f30006 	mvnseq	r0, #6
     aa0:	9f2502f5 	svcls	0x002502f5
	...
     aac:	000001bc 			; <UNDEFINED> instruction: 0x000001bc
     ab0:	000001cc 	andeq	r0, r0, ip, asr #3
     ab4:	00700002 	rsbseq	r0, r0, r2
     ab8:	000001cc 	andeq	r0, r0, ip, asr #3
     abc:	000002b0 			; <UNDEFINED> instruction: 0x000002b0
     ac0:	007a0002 	rsbseq	r0, sl, r2
	...
     acc:	000002d4 	ldrdeq	r0, [r0], -r4
     ad0:	000002d8 	ldrdeq	r0, [r0], -r8
     ad4:	007d0002 	rsbseq	r0, sp, r2
     ad8:	000002d8 	ldrdeq	r0, [r0], -r8
     adc:	000002e0 	andeq	r0, r0, r0, ror #5
     ae0:	207d0002 	rsbscs	r0, sp, r2
     ae4:	000002e0 	andeq	r0, r0, r0, ror #5
     ae8:	00000488 	andeq	r0, r0, r8, lsl #9
     aec:	307d0002 	rsbscc	r0, sp, r2
	...
     af8:	0000043c 	andeq	r0, r0, ip, lsr r4
     afc:	00000440 	andeq	r0, r0, r0, asr #8
     b00:	9f340002 	svcls	0x00340002
     b04:	00000448 	andeq	r0, r0, r8, asr #8
     b08:	00000488 	andeq	r0, r0, r8, lsl #9
     b0c:	00530001 	subseq	r0, r3, r1
     b10:	00000000 	andeq	r0, r0, r0
     b14:	d4000000 	strle	r0, [r0], #-0
     b18:	28000002 	stmdacs	r0, {r1}
     b1c:	0a000003 	beq	b30 <PHYS_OFFSET-0x7ffff4d0>
     b20:	00089e00 	andeq	r9, r8, r0, lsl #28
     b24:	00000000 	andeq	r0, r0, r0
     b28:	28000000 	stmdacs	r0, {}	; <UNPREDICTABLE>
     b2c:	74000003 	strvc	r0, [r0], #-3
     b30:	0a000003 	beq	b44 <PHYS_OFFSET-0x7ffff4bc>
     b34:	00089e00 	andeq	r9, r8, r0, lsl #28
     b38:	00400000 	subeq	r0, r0, r0
     b3c:	74000000 	strvc	r0, [r0], #-0
     b40:	c0000003 	andgt	r0, r0, r3
     b44:	0a000003 	beq	b58 <PHYS_OFFSET-0x7ffff4a8>
     b48:	00089e00 	andeq	r9, r8, r0, lsl #28
     b4c:	00800000 	addeq	r0, r0, r0
     b50:	c0000000 	andgt	r0, r0, r0
     b54:	10000003 	andne	r0, r0, r3
     b58:	0a000004 	beq	b70 <PHYS_OFFSET-0x7ffff490>
     b5c:	00089e00 	andeq	r9, r8, r0, lsl #28
     b60:	00c00000 	sbceq	r0, r0, r0
     b64:	10000000 	andne	r0, r0, r0
     b68:	88000004 	stmdahi	r0, {r2}
     b6c:	0a000004 	beq	b84 <PHYS_OFFSET-0x7ffff47c>
     b70:	00089e00 	andeq	r9, r8, r0, lsl #28
     b74:	01000000 	mrseq	r0, (UNDEF: 0)
	...
     b80:	88000000 	stmdahi	r0, {}	; <UNPREDICTABLE>
     b84:	8c000004 	stchi	0, cr0, [r0], {4}
     b88:	02000004 	andeq	r0, r0, #4
     b8c:	8c007d00 	stchi	13, cr7, [r0], {-0}
     b90:	58000004 	stmdapl	r0, {r2}
     b94:	02000008 	andeq	r0, r0, #8
     b98:	00287d00 	eoreq	r7, r8, r0, lsl #26
     b9c:	00000000 	andeq	r0, r0, r0
     ba0:	b8000000 	stmdalt	r0, {}	; <UNPREDICTABLE>
     ba4:	c0000004 	andgt	r0, r0, r4
     ba8:	01000005 	tsteq	r0, r5
     bac:	00005400 	andeq	r5, r0, r0, lsl #8
     bb0:	00000000 	andeq	r0, r0, r0
     bb4:	05c00000 	strbeq	r0, [r0]
     bb8:	06040000 	streq	r0, [r4], -r0
     bbc:	00010000 	andeq	r0, r1, r0
     bc0:	00000054 	andeq	r0, r0, r4, asr r0
     bc4:	00000000 	andeq	r0, r0, r0
     bc8:	00060400 	andeq	r0, r6, r0, lsl #8
     bcc:	00061c00 	andeq	r1, r6, r0, lsl #24
     bd0:	54000100 	strpl	r0, [r0], #-256	; 0x100
     bd4:	0000061c 	andeq	r0, r0, ip, lsl r6
     bd8:	0000062c 	andeq	r0, r0, ip, lsr #12
     bdc:	7a0c0006 	bvc	300bfc <PHYS_OFFSET-0x7fcff404>
     be0:	9f30c518 	svcls	0x0030c518
     be4:	0000062c 	andeq	r0, r0, ip, lsr #12
     be8:	00000648 	andeq	r0, r0, r8, asr #12
     bec:	b4540001 	ldrblt	r0, [r4], #-1
     bf0:	cc000007 	stcgt	0, cr0, [r0], {7}
     bf4:	01000007 	tsteq	r0, r7
     bf8:	07cc5400 	strbeq	r5, [ip, r0, lsl #8]
     bfc:	07d40000 	ldrbeq	r0, [r4, r0]
     c00:	00050000 	andeq	r0, r5, r0
     c04:	21310074 	teqcs	r1, r4, ror r0
     c08:	0007d49f 	muleq	r7, pc, r4	; <UNPREDICTABLE>
     c0c:	00085800 	andeq	r5, r8, r0, lsl #16
     c10:	54000100 	strpl	r0, [r0], #-256	; 0x100
	...
     c1c:	00000648 	andeq	r0, r0, r8, asr #12
     c20:	00000658 	andeq	r0, r0, r8, asr r6
     c24:	58540001 	ldmdapl	r4, {r0}^
     c28:	5b000006 	blpl	c48 <PHYS_OFFSET-0x7ffff3b8>
     c2c:	01000006 	tsteq	r0, r6
     c30:	06705000 	ldrbteq	r5, [r0], -r0
     c34:	06900000 	ldreq	r0, [r0], r0
     c38:	00010000 	andeq	r0, r1, r0
     c3c:	00000054 	andeq	r0, r0, r4, asr r0
     c40:	00000000 	andeq	r0, r0, r0
     c44:	0006e000 	andeq	lr, r6, r0
     c48:	00079800 	andeq	r9, r7, r0, lsl #16
     c4c:	55000100 	strpl	r0, [r0, #-256]	; 0x100
	...
     c58:	0000070c 	andeq	r0, r0, ip, lsl #14
     c5c:	00000728 	andeq	r0, r0, r8, lsr #14
     c60:	93560006 	cmpls	r6, #6
     c64:	04935704 	ldreq	r5, [r3], #1796	; 0x704
     c68:	00000738 	andeq	r0, r0, r8, lsr r7
     c6c:	0000074c 	andeq	r0, r0, ip, asr #14
     c70:	93560006 	cmpls	r6, #6
     c74:	04935704 	ldreq	r5, [r3], #1796	; 0x704
     c78:	00000754 	andeq	r0, r0, r4, asr r7
     c7c:	00000798 	muleq	r0, r8, r7
     c80:	93580006 	cmpls	r8, #6
     c84:	04935904 	ldreq	r5, [r3], #2308	; 0x904
     c88:	00000798 	muleq	r0, r8, r7
     c8c:	000007b4 			; <UNDEFINED> instruction: 0x000007b4
     c90:	93540006 	cmpls	r4, #6
     c94:	04935504 	ldreq	r5, [r3], #1284	; 0x504
	...
     ca0:	000006c4 	andeq	r0, r0, r4, asr #13
     ca4:	00000700 	andeq	r0, r0, r0, lsl #14
     ca8:	93560006 	cmpls	r6, #6
     cac:	04935704 	ldreq	r5, [r3], #1796	; 0x704
	...
     cb8:	000004b8 			; <UNDEFINED> instruction: 0x000004b8
     cbc:	000004d4 	ldrdeq	r0, [r0], -r4
     cc0:	00540001 	subseq	r0, r4, r1
     cc4:	00000000 	andeq	r0, r0, r0
     cc8:	d4000000 	strle	r0, [r0], #-0
     ccc:	f0000004 			; <UNDEFINED> instruction: 0xf0000004
     cd0:	01000004 	tsteq	r0, r4
     cd4:	00005400 	andeq	r5, r0, r0, lsl #8
     cd8:	00000000 	andeq	r0, r0, r0
     cdc:	04f00000 	ldrbteq	r0, [r0], #0
     ce0:	050c0000 	streq	r0, [ip, #-0]
     ce4:	00010000 	andeq	r0, r1, r0
     ce8:	00000054 	andeq	r0, r0, r4, asr r0
     cec:	00000000 	andeq	r0, r0, r0
     cf0:	00050c00 	andeq	r0, r5, r0, lsl #24
     cf4:	00054800 	andeq	r4, r5, r0, lsl #16
     cf8:	54000100 	strpl	r0, [r0], #-256	; 0x100
	...
     d04:	00000548 	andeq	r0, r0, r8, asr #10
     d08:	00000564 	andeq	r0, r0, r4, ror #10
     d0c:	00540001 	subseq	r0, r4, r1
     d10:	00000000 	andeq	r0, r0, r0
     d14:	64000000 	strvs	r0, [r0], #-0
     d18:	80000005 	andhi	r0, r0, r5
     d1c:	01000005 	tsteq	r0, r5
     d20:	00005400 	andeq	r5, r0, r0, lsl #8
     d24:	00000000 	andeq	r0, r0, r0
     d28:	05800000 	streq	r0, [r0]
     d2c:	059c0000 	ldreq	r0, [ip]
     d30:	00010000 	andeq	r0, r1, r0
     d34:	00000054 	andeq	r0, r0, r4, asr r0
     d38:	00000000 	andeq	r0, r0, r0
     d3c:	00059c00 	andeq	r9, r5, r0, lsl #24
     d40:	0005c000 	andeq	ip, r5, r0
     d44:	54000100 	strpl	r0, [r0], #-256	; 0x100
	...
     d50:	000005c0 	andeq	r0, r0, r0, asr #11
     d54:	000005e8 	andeq	r0, r0, r8, ror #11
     d58:	00540001 	subseq	r0, r4, r1
     d5c:	00000000 	andeq	r0, r0, r0
     d60:	e8000000 	stmda	r0, {}	; <UNPREDICTABLE>
     d64:	04000005 	streq	r0, [r0], #-5
     d68:	01000006 	tsteq	r0, r6
     d6c:	00005400 	andeq	r5, r0, r0, lsl #8
     d70:	00000000 	andeq	r0, r0, r0
     d74:	06040000 	streq	r0, [r4], -r0
     d78:	062c0000 	strteq	r0, [ip], -r0
     d7c:	00010000 	andeq	r0, r1, r0
     d80:	00000054 	andeq	r0, r0, r4, asr r0
     d84:	00000000 	andeq	r0, r0, r0
     d88:	00062c00 	andeq	r2, r6, r0, lsl #24
     d8c:	00064800 	andeq	r4, r6, r0, lsl #16
     d90:	54000100 	strpl	r0, [r0], #-256	; 0x100
	...
     d9c:	00000648 	andeq	r0, r0, r8, asr #12
     da0:	00000658 	andeq	r0, r0, r8, asr r6
     da4:	58540001 	ldmdapl	r4, {r0}^
     da8:	5b000006 	blpl	dc8 <PHYS_OFFSET-0x7ffff238>
     dac:	01000006 	tsteq	r0, r6
     db0:	00005000 	andeq	r5, r0, r0
     db4:	00000000 	andeq	r0, r0, r0
     db8:	06700000 	ldrbteq	r0, [r0], -r0
     dbc:	06900000 	ldreq	r0, [r0], r0
     dc0:	00010000 	andeq	r0, r1, r0
     dc4:	00000054 	andeq	r0, r0, r4, asr r0
     dc8:	00000000 	andeq	r0, r0, r0
     dcc:	00068800 	andeq	r8, r6, r0, lsl #16
     dd0:	00069000 	andeq	r9, r6, r0
     dd4:	74000800 	strvc	r0, [r0], #-2048	; 0x800
     dd8:	1ac00800 	bne	ff002de0 <STACKTOP+0x2de0>
     ddc:	009f2536 	addseq	r2, pc, r6, lsr r5	; <UNPREDICTABLE>
     de0:	00000000 	andeq	r0, r0, r0
     de4:	90000000 	andls	r0, r0, r0
     de8:	98000006 	stmdals	r0, {r1, r2}
     dec:	01000006 	tsteq	r0, r6
     df0:	00005400 	andeq	r5, r0, r0, lsl #8
     df4:	00000000 	andeq	r0, r0, r0
     df8:	069c0000 	ldreq	r0, [ip], r0
     dfc:	06b80000 	ldrteq	r0, [r8], r0
     e00:	00010000 	andeq	r0, r1, r0
     e04:	00000054 	andeq	r0, r0, r4, asr r0
     e08:	00000000 	andeq	r0, r0, r0
     e0c:	0006b400 	andeq	fp, r6, r0, lsl #8
     e10:	0006c700 	andeq	ip, r6, r0, lsl #14
     e14:	53000100 	movwpl	r0, #256	; 0x100
	...
     e20:	000006b4 			; <UNDEFINED> instruction: 0x000006b4
     e24:	000006c7 	andeq	r0, r0, r7, asr #13
     e28:	00520001 	subseq	r0, r2, r1
     e2c:	00000000 	andeq	r0, r0, r0
     e30:	fc000000 	stc2	0, cr0, [r0], {-0}
     e34:	13000006 	movwne	r0, #6
     e38:	01000007 	tsteq	r0, r7
     e3c:	00005100 	andeq	r5, r0, r0, lsl #2
     e40:	00000000 	andeq	r0, r0, r0
     e44:	06fc0000 	ldrbteq	r0, [ip], r0
     e48:	07130000 	ldreq	r0, [r3, -r0]
     e4c:	00010000 	andeq	r0, r1, r0
     e50:	0000005c 	andeq	r0, r0, ip, asr r0
     e54:	00000000 	andeq	r0, r0, r0
     e58:	00078c00 	andeq	r8, r7, r0, lsl #24
     e5c:	00079b00 	andeq	r9, r7, r0, lsl #22
     e60:	51000100 	mrspl	r0, (UNDEF: 16)
	...
     e6c:	0000078c 	andeq	r0, r0, ip, lsl #15
     e70:	0000079b 	muleq	r0, fp, r7
     e74:	005c0001 	subseq	r0, ip, r1
     e78:	00000000 	andeq	r0, r0, r0
     e7c:	b4000000 	strlt	r0, [r0], #-0
     e80:	d4000007 	strle	r0, [r0], #-7
     e84:	01000007 	tsteq	r0, r7
     e88:	00005400 	andeq	r5, r0, r0, lsl #8
	...
     e94:	00040000 	andeq	r0, r4, r0
     e98:	00020000 	andeq	r0, r2, r0
     e9c:	0004007d 	andeq	r0, r4, sp, ror r0
     ea0:	01500000 	cmpeq	r0, r0
     ea4:	00020000 	andeq	r0, r2, r0
     ea8:	0000107d 	andeq	r1, r0, sp, ror r0
     eac:	00000000 	andeq	r0, r0, r0
     eb0:	00080000 	andeq	r0, r8, r0
     eb4:	00380000 	eorseq	r0, r8, r0
     eb8:	00010000 	andeq	r0, r1, r0
     ebc:	00000054 	andeq	r0, r0, r4, asr r0
     ec0:	00000000 	andeq	r0, r0, r0
     ec4:	00003800 	andeq	r3, r0, r0, lsl #16
     ec8:	0000d000 	andeq	sp, r0, r0
     ecc:	54000100 	strpl	r0, [r0], #-256	; 0x100
     ed0:	000000d0 	ldrdeq	r0, [r0], -r0	; <UNPREDICTABLE>
     ed4:	00000150 	andeq	r0, r0, r0, asr r1
     ed8:	80750004 	rsbshi	r0, r5, r4
     edc:	00009f60 	andeq	r9, r0, r0, ror #30
     ee0:	00000000 	andeq	r0, r0, r0
     ee4:	00540000 	subseq	r0, r4, r0
     ee8:	00780000 	rsbseq	r0, r8, r0
     eec:	00050000 	andeq	r0, r5, r0
     ef0:	00c08074 	sbceq	r8, r0, r4, ror r0
     ef4:	0000789f 	muleq	r0, pc, r8	; <UNPREDICTABLE>
     ef8:	00007b00 	andeq	r7, r0, r0, lsl #22
     efc:	50000100 	andpl	r0, r0, r0, lsl #2
     f00:	0000007b 	andeq	r0, r0, fp, ror r0
     f04:	000000d0 	ldrdeq	r0, [r0], -r0	; <UNPREDICTABLE>
     f08:	80740005 	rsbshi	r0, r4, r5
     f0c:	d09f00c0 	addsle	r0, pc, r0, asr #1
     f10:	50000000 	andpl	r0, r0, r0
     f14:	04000001 	streq	r0, [r0], #-1
     f18:	20807500 	addcs	r7, r0, r0, lsl #10
     f1c:	0000009f 	muleq	r0, pc, r0	; <UNPREDICTABLE>
     f20:	00000000 	andeq	r0, r0, r0
     f24:	00005400 	andeq	r5, r0, r0, lsl #8
     f28:	00009000 	andeq	r9, r0, r0
     f2c:	74000500 	strvc	r0, [r0], #-1280	; 0x500
     f30:	9f018080 	svcls	0x00018080
     f34:	00000090 	muleq	r0, r0, r0
     f38:	00000093 	muleq	r0, r3, r0
     f3c:	93500001 	cmpls	r0, #1
     f40:	d0000000 	andle	r0, r0, r0
     f44:	05000000 	streq	r0, [r0, #-0]
     f48:	80807400 	addhi	r7, r0, r0, lsl #8
     f4c:	00d09f01 	sbcseq	r9, r0, r1, lsl #30
     f50:	01500000 	cmpeq	r0, r0
     f54:	00050000 	andeq	r0, r5, r0
     f58:	00e08075 	rsceq	r8, r0, r5, ror r0
     f5c:	0000009f 	muleq	r0, pc, r0	; <UNPREDICTABLE>
     f60:	00000000 	andeq	r0, r0, r0
     f64:	00005400 	andeq	r5, r0, r0, lsl #8
     f68:	0000a800 	andeq	sl, r0, r0, lsl #16
     f6c:	74000500 	strvc	r0, [r0], #-1280	; 0x500
     f70:	9f01a080 	svcls	0x0001a080
     f74:	000000a8 	andeq	r0, r0, r8, lsr #1
     f78:	000000ab 	andeq	r0, r0, fp, lsr #1
     f7c:	ab500001 	blge	1400f88 <PHYS_OFFSET-0x7ebff078>
     f80:	d0000000 	andle	r0, r0, r0
     f84:	05000000 	streq	r0, [r0, #-0]
     f88:	a0807400 	addge	r7, r0, r0, lsl #8
     f8c:	00d09f01 	sbcseq	r9, r0, r1, lsl #30
     f90:	01500000 	cmpeq	r0, r0
     f94:	00050000 	andeq	r0, r5, r0
     f98:	01808075 	orreq	r8, r0, r5, ror r0
     f9c:	0000009f 	muleq	r0, pc, r0	; <UNPREDICTABLE>
     fa0:	00000000 	andeq	r0, r0, r0
     fa4:	00005400 	andeq	r5, r0, r0, lsl #8
     fa8:	0000c000 	andeq	ip, r0, r0
     fac:	74000500 	strvc	r0, [r0], #-1280	; 0x500
     fb0:	9f01c080 	svcls	0x0001c080
     fb4:	000000c0 	andeq	r0, r0, r0, asr #1
     fb8:	000000c3 	andeq	r0, r0, r3, asr #1
     fbc:	c3500001 	cmpgt	r0, #1
     fc0:	d0000000 	andle	r0, r0, r0
     fc4:	05000000 	streq	r0, [r0, #-0]
     fc8:	c0807400 	addgt	r7, r0, r0, lsl #8
     fcc:	00d09f01 	sbcseq	r9, r0, r1, lsl #30
     fd0:	01500000 	cmpeq	r0, r0
     fd4:	00050000 	andeq	r0, r5, r0
     fd8:	01a08075 	roreq	r8, r5, r0
     fdc:	0000009f 	muleq	r0, pc, r0	; <UNPREDICTABLE>
     fe0:	00000000 	andeq	r0, r0, r0
     fe4:	00015000 	andeq	r5, r1, r0
     fe8:	00015400 	andeq	r5, r1, r0, lsl #8
     fec:	7d000200 	sfmvc	f0, 4, [r0, #-0]
     ff0:	00015400 	andeq	r5, r1, r0, lsl #8
     ff4:	00016000 	andeq	r6, r1, r0
     ff8:	7d000200 	sfmvc	f0, 4, [r0, #-0]
     ffc:	00000008 	andeq	r0, r0, r8
    1000:	00000000 	andeq	r0, r0, r0
	...

Disassembly of section .debug_str:

00000000 <.debug_str>:
   0:	74735f63 	ldrbtvc	r5, [r3], #-3939	; 0xf63
   4:	2e747261 	cdpcs	2, 7, cr7, cr4, cr1, {3}
   8:	4e470063 	cdpmi	0, 4, cr0, cr7, cr3, {3}
   c:	20432055 	subcs	r2, r3, r5, asr r0
  10:	2e372e34 	mrccs	14, 1, r2, cr7, cr4, {1}
  14:	30322031 	eorscc	r2, r2, r1, lsr r0
  18:	35303231 	ldrcc	r3, [r0, #-561]!	; 0x231
  1c:	28203431 	stmdacs	r0!, {r0, r4, r5, sl, ip, sp}
  20:	72657270 	rsbvc	r7, r5, #7
  24:	61656c65 	cmnvs	r5, r5, ror #24
  28:	00296573 	eoreq	r6, r9, r3, ror r5
  2c:	5f6d726e 	svcpl	0x006d726e
  30:	706f6f6c 	rsbvc	r6, pc, ip, ror #30
  34:	72617500 	rsbvc	r7, r1, #0
  38:	72705f74 	rsbsvc	r5, r0, #464	; 0x1d0
  3c:	5f746e69 	svcpl	0x00746e69
  40:	33786568 	cmncc	r8, #436207616	; 0x1a000000
  44:	6f6c0032 	svcvs	0x006c0032
  48:	6c20676e 	stcvs	7, cr6, [r0], #-440	; 0xfffffe48
  4c:	20676e6f 	rsbcs	r6, r7, pc, ror #28
  50:	69736e75 	ldmdbvs	r3!, {r0, r2, r4, r5, r6, r9, sl, fp, sp, lr}^
  54:	64656e67 	strbtvs	r6, [r5], #-3687	; 0xe67
  58:	746e6920 	strbtvc	r6, [lr], #-2336	; 0x920
  5c:	736e7500 	cmnvc	lr, #0
  60:	656e6769 	strbvs	r6, [lr, #-1897]!	; 0x769
  64:	68632064 	stmdavs	r3!, {r2, r5, r6, sp}^
  68:	63007261 	movwvs	r7, #609	; 0x261
  6c:	6174735f 	cmnvs	r4, pc, asr r3
  70:	75007472 	strvc	r7, [r0, #-1138]	; 0x472
  74:	5f747261 	svcpl	0x00747261
  78:	6e697270 	mcrvs	2, 3, r7, cr9, cr0, {3}
  7c:	6f6d0074 	svcvs	0x006d0074
  80:	6e695f6e 	cdpvs	15, 6, cr5, cr9, cr14, {3}
  84:	73007469 	movwvc	r7, #1129	; 0x469
  88:	74726f68 	ldrbtvc	r6, [r2], #-3944	; 0xf68
  8c:	736e7520 	cmnvc	lr, #134217728	; 0x8000000
  90:	656e6769 	strbvs	r6, [lr, #-1897]!	; 0x769
  94:	6e692064 	cdpvs	0, 6, cr2, cr9, cr4, {3}
  98:	76720074 			; <UNDEFINED> instruction: 0x76720074
  9c:	2f006c61 	svccs	0x00006c61
  a0:	656d6f68 	strbvs	r6, [sp, #-3944]!	; 0xf68
  a4:	67616d2f 	strbvs	r6, [r1, -pc, lsr #26]!
  a8:	61796369 	cmnvs	r9, r9, ror #6
  ac:	772f6162 	strvc	r6, [pc, -r2, ror #2]!
  b0:	2f6b726f 	svccs	0x006b726f
  b4:	65707968 	ldrbvs	r7, [r0, #-2408]!	; 0x968
  b8:	73697672 	cmnvc	r9, #119537664	; 0x7200000
  bc:	6d2f726f 	sfmvs	f7, 4, [pc, #-444]!	; ffffff08 <STACKTOP+0xffff08>
  c0:	74696e6f 	strbtvc	r6, [r9], #-3695	; 0xe6f
  c4:	6c00726f 	sfmvs	f7, 4, [r0], {111}	; 0x6f
  c8:	20676e6f 	rsbcs	r6, r7, pc, ror #28
  cc:	676e6f6c 	strbvs	r6, [lr, -ip, ror #30]!
  d0:	746e6920 	strbtvc	r6, [lr], #-2336	; 0x920
  d4:	6f687300 	svcvs	0x00687300
  d8:	69207472 	stmdbvs	r0!, {r1, r4, r5, r6, sl, ip, sp, lr}
  dc:	6300746e 	movwvs	r7, #1134	; 0x46e
  e0:	00727370 	rsbseq	r7, r2, r0, ror r3
  e4:	6d6d656d 	cfstr64vs	mvdx6, [sp, #-436]!	; 0xfffffe4c
  e8:	0065766f 	rsbeq	r7, r5, pc, ror #12
  ec:	657a6973 	ldrbvs	r6, [sl, #-2419]!	; 0x973
  f0:	7300745f 	movwvc	r7, #1119	; 0x45f
  f4:	6e697274 	mcrvs	2, 3, r7, cr9, cr4, {3}
  f8:	00632e67 	rsbeq	r2, r3, r7, ror #28
  fc:	636d656d 	cmnvs	sp, #457179136	; 0x1b400000
 100:	7300706d 	movwvc	r7, #109	; 0x6d
 104:	68637274 	stmdavs	r3!, {r2, r4, r5, r6, r9, ip, sp, lr}^
 108:	6f630072 	svcvs	0x00630072
 10c:	00746e75 	rsbseq	r6, r4, r5, ror lr
 110:	63727473 	cmnvs	r2, #1929379840	; 0x73000000
 114:	6d00706d 	stcvs	0, cr7, [r0, #-436]	; 0xfffffe4c
 118:	70636d65 	rsbvc	r6, r3, r5, ror #26
 11c:	74730079 	ldrbtvc	r0, [r3], #-121	; 0x79
 120:	6e656c72 	mcrvs	12, 3, r6, cr5, cr2, {3}
 124:	6d656d00 	stclvs	13, cr6, [r5, #-0]
 128:	00726863 	rsbseq	r6, r2, r3, ror #16
 12c:	656d5f5f 	strbvs	r5, [sp, #-3935]!	; 0xf5f
 130:	766f6d6d 	strbtvc	r6, [pc], -sp, ror #26
 134:	70755f65 	rsbsvc	r5, r5, r5, ror #30
 138:	645f5f00 	ldrbvs	r5, [pc], #-3840	; 140 <PHYS_OFFSET-0x7ffffec0>
 13c:	00747365 	rsbseq	r7, r4, r5, ror #6
 140:	6e727473 	mrcvs	4, 3, r7, cr2, cr3, {3}
 144:	00706d63 	rsbseq	r6, r0, r3, ror #26
 148:	72735f5f 	rsbsvc	r5, r3, #380	; 0x17c
 14c:	656d0063 	strbvs	r0, [sp, #-99]!	; 0x63
 150:	7465736d 	strbtvc	r7, [r5], #-877	; 0x36d
 154:	6d5f5f00 	ldclvs	15, cr5, [pc, #-0]	; 15c <PHYS_OFFSET-0x7ffffea4>
 158:	6f6d6d65 	svcvs	0x006d6d65
 15c:	645f6576 	ldrbvs	r6, [pc], #-1398	; 164 <PHYS_OFFSET-0x7ffffe9c>
 160:	006e776f 	rsbeq	r7, lr, pc, ror #14
 164:	31646170 	smccc	17936	; 0x4610
 168:	64617000 	strbtvs	r7, [r1], #-0
 16c:	79680032 	stmdbvc	r8!, {r1, r4, r5}^
 170:	77735f70 			; <UNDEFINED> instruction: 0x77735f70
 174:	68637469 	stmdavs	r3!, {r0, r3, r5, r6, sl, ip, sp, lr}^
 178:	6575675f 	ldrbvs	r6, [r5, #-1887]!	; 0x75f
 17c:	77007473 	smlsdxvc	r0, r3, r4, r7
 180:	006b6c61 	rsbeq	r6, fp, r1, ror #24
 184:	5f707968 	svcpl	0x00707968
 188:	6e69616d 	powvsez	f6, f1, #5.0
 18c:	61706c00 	cmnvs	r0, r0, lsl #24
 190:	74705f65 	ldrbtvc	r5, [r0], #-3941	; 0xf65
 194:	5f00745f 	svcpl	0x0000745f
 198:	5f707968 	svcpl	0x00707968
 19c:	70617274 	rsbvc	r7, r1, r4, ror r2
 1a0:	6261645f 	rsbvs	r6, r1, #1593835520	; 0x5f000000
 1a4:	0074726f 	rsbseq	r7, r4, pc, ror #4
 1a8:	6d6d7668 	stclvs	6, cr7, [sp, #-416]!	; 0xfffffe60
 1ac:	5f6d6d5f 	svcpl	0x006d6d5f
 1b0:	64696d76 	strbtvs	r6, [r9], #-3446	; 0xd76
 1b4:	6274745f 	rsbsvs	r7, r4, #1593835520	; 0x5f000000
 1b8:	706c006c 	rsbvc	r0, ip, ip, rrx
 1bc:	705f6561 	subsvc	r6, pc, r1, ror #10
 1c0:	745f6d32 	ldrbvc	r6, [pc], #-3378	; 1c8 <PHYS_OFFSET-0x7ffffe38>
 1c4:	67657200 	strbvs	r7, [r5, -r0, lsl #4]!
 1c8:	75635f73 	strbvc	r5, [r3, #-3955]!	; 0xf73
 1cc:	6e657272 	mcrvs	2, 3, r7, cr5, cr2, {3}
 1d0:	79680074 	stmdbvc	r8!, {r2, r4, r5, r6}^
 1d4:	77735f70 			; <UNDEFINED> instruction: 0x77735f70
 1d8:	68637469 	stmdavs	r3!, {r0, r3, r5, r6, sl, ip, sp, lr}^
 1dc:	5f6f745f 	svcpl	0x006f745f
 1e0:	7478656e 	ldrbtvc	r6, [r8], #-1390	; 0x56e
 1e4:	6575675f 	ldrbvs	r6, [r5, #-1887]!	; 0x75f
 1e8:	75007473 	strvc	r7, [r0, #-1139]	; 0x473
 1ec:	00726573 	rsbseq	r6, r2, r3, ror r5
 1f0:	6561706c 	strbvs	r7, [r1, #-108]!	; 0x6c
 1f4:	00745f64 	rsbseq	r5, r4, r4, ror #30
 1f8:	6d6d7668 	stclvs	6, cr7, [sp, #-416]!	; 0xfffffe60
 1fc:	5f6d6d5f 	svcpl	0x006d6d5f
 200:	67617473 			; <UNDEFINED> instruction: 0x67617473
 204:	655f3265 	ldrbvs	r3, [pc, #-613]	; ffffffa7 <STACKTOP+0xffffa7>
 208:	6c62616e 	stfvse	f6, [r2], #-440	; 0xfffffe48
 20c:	59480065 	stmdbpl	r8, {r0, r2, r5, r6}^
 210:	45525f50 	ldrbmi	r5, [r2, #-3920]	; 0xf50
 214:	544c5553 	strbpl	r5, [ip], #-1363	; 0x553
 218:	4154535f 	cmpmi	r4, pc, asr r3
 21c:	56480059 			; <UNDEFINED> instruction: 0x56480059
 220:	535f4d4d 	cmppl	pc, #4928	; 0x1340
 224:	55544154 	ldrbpl	r4, [r4, #-340]	; 0x154
 228:	55535f53 	ldrbpl	r5, [r3, #-3923]	; 0xf53
 22c:	53454343 	movtpl	r4, #21315	; 0x5343
 230:	76680053 			; <UNDEFINED> instruction: 0x76680053
 234:	6d5f6d6d 	ldclvs	13, cr6, [pc, #-436]	; 88 <PHYS_OFFSET-0x7fffff78>
 238:	65735f6d 	ldrbvs	r5, [r3, #-3949]!	; 0xf6d
 23c:	6d765f74 	ldclvs	15, cr5, [r6, #-464]!	; 0xfffffe30
 240:	745f6469 	ldrbvc	r6, [pc], #-1129	; 248 <PHYS_OFFSET-0x7ffffdb8>
 244:	006c6274 	rsbeq	r6, ip, r4, ror r2
 248:	64696d76 	strbtvs	r6, [r9], #-3446	; 0xd76
 24c:	7a627300 	bvc	189ce54 <PHYS_OFFSET-0x7e7631ac>
 250:	61620032 	cmnvs	r2, r2, lsr r0
 254:	68006573 	stmdavs	r0, {r0, r1, r4, r5, r6, r8, sl, sp, lr}
 258:	5f6d6d76 	svcpl	0x006d6d76
 25c:	65746e69 	ldrbvs	r6, [r4, #-3689]!	; 0xe69
 260:	70757272 	rsbsvc	r7, r5, r2, ror r2
 264:	6e695f74 	mcrvs	15, 3, r5, cr9, cr4, {3}
 268:	6d007469 	cfstrsvs	mvf7, [r0, #-420]	; 0xfffffe5c
 26c:	72747461 	rsbsvc	r7, r4, #1627389952	; 0x61000000
 270:	63726100 	cmnvs	r2, #0
 274:	65725f68 	ldrbvs	r5, [r2, #-3944]!	; 0xf68
 278:	77007367 	strvc	r7, [r0, -r7, ror #6]
 27c:	65746972 	ldrbvs	r6, [r4, #-2418]!	; 0x972
 280:	6e696800 	cdpvs	8, 6, cr6, cr9, cr0, {0}
 284:	62730074 	rsbsvs	r0, r3, #116	; 0x74
 288:	6100317a 	tstvs	r0, sl, ror r1
 28c:	6c696176 	stfvse	f6, [r9], #-472	; 0xfffffe28
 290:	7a627300 	bvc	189ce98 <PHYS_OFFSET-0x7e763168>
 294:	62730033 	rsbsvs	r0, r3, #51	; 0x33
 298:	6800347a 	stmdavs	r0, {r1, r3, r4, r5, r6, sl, ip, sp}
 29c:	685f7079 	ldmdavs	pc, {r0, r3, r4, r5, r6, ip, sp, lr}^	; <UNPREDICTABLE>
 2a0:	725f6376 	subsvc	r6, pc, #-671088639	; 0xd8000001
 2a4:	6c757365 	ldclvs	3, cr7, [r5], #-404	; 0xfffffe6c
 2a8:	00745f74 	rsbseq	r5, r4, r4, ror pc
 2ac:	746e6975 	strbtvc	r6, [lr], #-2421	; 0x975
 2b0:	00745f38 	rsbseq	r5, r4, r8, lsr pc
 2b4:	5f505948 	svcpl	0x00505948
 2b8:	55534552 	ldrbpl	r4, [r3, #-1362]	; 0x552
 2bc:	455f544c 	ldrbmi	r5, [pc, #-1100]	; fffffe78 <STACKTOP+0xfffe78>
 2c0:	00544552 	subseq	r4, r4, r2, asr r5
 2c4:	6d6d7668 	stclvs	6, cr7, [sp, #-416]!	; 0xfffffe60
 2c8:	6174735f 	cmnvs	r4, pc, asr r3
 2cc:	5f737574 	svcpl	0x00737574
 2d0:	75630074 	strbvc	r0, [r3, #-116]!	; 0x74
 2d4:	6e657272 	mcrvs	2, 3, r7, cr5, cr2, {3}
 2d8:	75675f74 	strbvc	r5, [r7, #-3956]!	; 0xf74
 2dc:	00747365 	rsbseq	r7, r4, r5, ror #6
 2e0:	5f707968 	svcpl	0x00707968
 2e4:	74696e69 	strbtvc	r6, [r9], #-3689	; 0xe69
 2e8:	6575675f 	ldrbvs	r6, [r5, #-1887]!	; 0x75f
 2ec:	00737473 	rsbseq	r7, r3, r3, ror r4
 2f0:	6561706c 	strbvs	r7, [r1, #-108]!	; 0x6c
 2f4:	6c61775f 	stclvs	7, cr7, [r1], #-380	; 0xfffffe84
 2f8:	00745f6b 	rsbseq	r5, r4, fp, ror #30
 2fc:	657a6973 	ldrbvs	r6, [sl, #-2419]!	; 0x973
 300:	65707974 	ldrbvs	r7, [r0, #-2420]!	; 0x974
 304:	6d766800 	ldclvs	8, cr6, [r6, #-0]
 308:	6d6d5f6d 	stclvs	15, cr5, [sp, #-436]!	; 0xfffffe4c
 30c:	696e695f 	stmdbvs	lr!, {r0, r1, r2, r3, r4, r6, r8, fp, sp, lr}^
 310:	6d760074 	ldclvs	0, cr0, [r6, #-464]!	; 0xfffffe30
 314:	745f6469 	ldrbvc	r6, [pc], #-1129	; 31c <PHYS_OFFSET-0x7ffffce4>
 318:	70796800 	rsbsvc	r6, r9, r0, lsl #16
 31c:	6977735f 	ldmdbvs	r7!, {r0, r1, r2, r3, r4, r6, r8, r9, ip, sp, lr}^
 320:	5f686374 	svcpl	0x00686374
 324:	695f6f74 	ldmdbvs	pc, {r2, r4, r5, r6, r8, r9, sl, fp, sp, lr}^	; <UNPREDICTABLE>
 328:	6974696e 	ldmdbvs	r4!, {r1, r2, r3, r5, r6, r8, fp, sp, lr}^
 32c:	675f6c61 	ldrbvs	r6, [pc, -r1, ror #24]
 330:	74736575 	ldrbtvc	r6, [r3], #-1397	; 0x575
 334:	6c617600 	stclvs	6, cr7, [r1], #-0
 338:	70006469 	andvc	r6, r0, r9, ror #8
 33c:	00746e78 	rsbseq	r6, r4, r8, ror lr
 340:	7079685f 	rsbsvc	r6, r9, pc, asr r8
 344:	6376685f 	cmnvs	r6, #6225920	; 0x5f0000
 348:	7265735f 	rsbvc	r7, r5, #2080374785	; 0x7c000001
 34c:	65636976 	strbvs	r6, [r3, #-2422]!	; 0x976
 350:	65756700 	ldrbvs	r6, [r5, #-1792]!	; 0x700
 354:	635f7473 	cmpvs	pc, #1929379840	; 0x73000000
 358:	65746e6f 	ldrbvs	r6, [r4, #-3695]!	; 0xe6f
 35c:	00737478 	rsbseq	r7, r3, r8, ror r4
 360:	5f707968 	svcpl	0x00707968
 364:	73657567 	cmnvc	r5, #432013312	; 0x19c00000
 368:	6f635f74 	svcvs	0x00635f74
 36c:	7865746e 	stmdavc	r5!, {r1, r2, r3, r5, r6, sl, ip, sp, lr}^
 370:	56480074 			; <UNDEFINED> instruction: 0x56480074
 374:	535f4d4d 	cmppl	pc, #4928	; 0x1340
 378:	55544154 	ldrbpl	r4, [r4, #-340]	; 0x154
 37c:	4e555f53 	mrcmi	15, 2, r5, cr5, cr3, {2}
 380:	574f4e4b 	strbpl	r4, [pc, -fp, asr #28]
 384:	52455f4e 	subpl	r5, r5, #312	; 0x138
 388:	00524f52 	subseq	r4, r2, r2, asr pc
 38c:	746e6975 	strbtvc	r6, [lr], #-2421	; 0x975
 390:	745f3436 	ldrbvc	r3, [pc], #-1078	; 398 <PHYS_OFFSET-0x7ffffc68>
 394:	6e697500 	cdpvs	5, 6, cr7, cr9, cr0, {0}
 398:	5f323374 	svcpl	0x00323374
 39c:	6d680074 	stclvs	0, cr0, [r8, #-464]!	; 0xfffffe30
 3a0:	2e6e6961 	cdpcs	9, 6, cr6, cr14, cr1, {3}
 3a4:	79680063 	stmdbvc	r8!, {r0, r1, r5, r6}^
 3a8:	62615f70 	rsbvs	r5, r1, #448	; 0x1c0
 3ac:	5f74726f 	svcpl	0x0074726f
 3b0:	69666e69 	stmdbvs	r6!, {r0, r3, r5, r6, r9, sl, fp, sp, lr}^
 3b4:	6574696e 	ldrbvs	r6, [r4, #-2414]!	; 0x96e
 3b8:	74696200 	strbtvc	r6, [r9], #-512	; 0x200
 3bc:	61750073 	cmnvs	r5, r3, ror r0
 3c0:	645f7472 	ldrbvs	r7, [pc], #-1138	; 3c8 <PHYS_OFFSET-0x7ffffc38>
 3c4:	5f706d75 	svcpl	0x00706d75
 3c8:	73676572 	cmnvc	r7, #478150656	; 0x1c800000
 3cc:	6d5f5f00 	ldclvs	15, cr5, [pc, #-0]	; 3d4 <PHYS_OFFSET-0x7ffffc2c>
 3d0:	735f6e6f 	cmpvc	pc, #1776	; 0x6f0
 3d4:	63746977 	cmnvs	r4, #1949696	; 0x1dc000
 3d8:	6f745f68 	svcvs	0x00745f68
 3dc:	6575675f 	ldrbvs	r6, [r5, #-1887]!	; 0x75f
 3e0:	635f7473 	cmpvs	pc, #1929379840	; 0x73000000
 3e4:	65746e6f 	ldrbvs	r6, [r4, #-3695]!	; 0xe6f
 3e8:	72007478 	andvc	r7, r0, #2013265920	; 0x78000000
 3ec:	00646165 	rsbeq	r6, r4, r5, ror #2
 3f0:	696e6f6d 	stmdbvs	lr!, {r0, r2, r3, r5, r6, r8, r9, sl, fp, sp, lr}^
 3f4:	5f726f74 	svcpl	0x00726f74
 3f8:	2e706d69 	cdpcs	13, 7, cr6, cr0, cr9, {3}
 3fc:	5f5f0063 	svcpl	0x005f0063
 400:	5f6e6f6d 	svcpl	0x006e6f6d
 404:	65746e65 	ldrbvs	r6, [r4, #-3685]!	; 0xe65
 408:	79685f72 	stmdbvc	r8!, {r1, r4, r5, r6, r8, r9, sl, fp, ip, lr}^
 40c:	61750070 	cmnvs	r5, r0, ror r0
 410:	705f7472 	subsvc	r7, pc, r2, ror r4	; <UNPREDICTABLE>
 414:	746e6972 	strbtvc	r6, [lr], #-2418	; 0x972
 418:	7865685f 	stmdavc	r5!, {r0, r1, r2, r3, r4, r6, fp, sp, lr}^
 41c:	70003436 	andvc	r3, r0, r6, lsr r4
 420:	54524155 	ldrbpl	r4, [r2], #-341	; 0x155
 424:	72617500 	rsbvc	r7, r1, #0
 428:	72705f74 	rsbsvc	r5, r0, #464	; 0x1d0
 42c:	2e746e69 	cdpcs	14, 7, cr6, cr4, cr9, {3}
 430:	61750063 	cmnvs	r5, r3, rrx
 434:	705f7472 	subsvc	r7, pc, r2, ror r4	; <UNPREDICTABLE>
 438:	00637475 	rsbeq	r7, r3, r5, ror r4
 43c:	6b73616d 	blvs	1cd89f8 <PHYS_OFFSET-0x7e327608>
 440:	74610038 	strbtvc	r0, [r1], #-56	; 0x38
 444:	695f7274 	ldmdbvs	pc, {r2, r4, r5, r6, r9, ip, sp, lr}^	; <UNPREDICTABLE>
 448:	68007864 	stmdavs	r0, {r2, r5, r6, fp, ip, sp, lr}
 44c:	6c746373 	ldclvs	3, cr6, [r4], #-460	; 0xfffffe34
 450:	765f0072 			; <UNDEFINED> instruction: 0x765f0072
 454:	695f6d6d 	ldmdbvs	pc, {r0, r2, r3, r5, r6, r8, sl, fp, sp, lr}^	; <UNPREDICTABLE>
 458:	0074696e 	rsbseq	r6, r4, lr, ror #18
 45c:	72637468 	rsbvc	r7, r3, #1744830464	; 0x68000000
 460:	63747600 	cmnvs	r4, #0
 464:	61620072 	smcvs	8194	; 0x2002
 468:	5f726464 	svcpl	0x00726464
 46c:	685f0078 	ldmdavs	pc, {r3, r4, r5, r6}^	; <UNPREDICTABLE>
 470:	705f6d6d 	subsvc	r6, pc, sp, ror #26
 474:	62617467 	rsbvs	r7, r1, #1728053248	; 0x67000000
 478:	6c00656c 	cfstr32vs	mvfx6, [r0], {108}	; 0x6c
 47c:	64656170 	strbtvs	r6, [r5], #-368	; 0x170
 480:	6d766800 	ldclvs	8, cr6, [r6, #-0]
 484:	6d6d5f6d 	stclvs	15, cr5, [sp, #-436]!	; 0xfffffe4c
 488:	61706c5f 	cmnvs	r0, pc, asr ip
 48c:	6c5f6465 	cfldrdvs	mvd6, [pc], {101}	; 0x65
 490:	6c625f31 	stclvs	15, cr5, [r2], #-196	; 0xffffff3c
 494:	006b636f 	rsbeq	r6, fp, pc, ror #6
 498:	7a733074 	bvc	1ccc670 <PHYS_OFFSET-0x7e333990>
 49c:	2e6d6d00 	cdpcs	13, 6, cr6, cr13, cr0, {0}
 4a0:	685f0063 	ldmdavs	pc, {r0, r1, r5, r6}^	; <UNPREDICTABLE>
 4a4:	695f6d6d 	ldmdbvs	pc, {r0, r2, r3, r5, r6, r8, sl, fp, sp, lr}^	; <UNPREDICTABLE>
 4a8:	0074696e 	rsbseq	r6, r4, lr, ror #18
 4ac:	6d6d7668 	stclvs	6, cr7, [sp, #-416]!	; 0xfffffe60
 4b0:	5f6d6d5f 	svcpl	0x006d6d5f
 4b4:	6561706c 	strbvs	r7, [r1, #-108]!	; 0x6c
 4b8:	326c5f64 	rsbcc	r5, ip, #400	; 0x190
 4bc:	6f6c625f 	svcvs	0x006c625f
 4c0:	5f006b63 	svcpl	0x00006b63
 4c4:	62747476 	rsbsvs	r7, r4, #1979711488	; 0x76000000
 4c8:	74705f72 	ldrbtvc	r5, [r0], #-3954	; 0xf72
 4cc:	75675f65 	strbvc	r5, [r7, #-3941]!	; 0xf65
 4d0:	30747365 	rsbscc	r7, r4, r5, ror #6
 4d4:	74747600 	ldrbtvc	r7, [r4], #-1536	; 0x600
 4d8:	68007262 	stmdavs	r0, {r1, r5, r6, r9, ip, sp, lr}
 4dc:	72627474 	rsbvc	r7, r2, #1946157056	; 0x74000000
 4e0:	74765f00 	ldrbtvc	r5, [r6], #-3840	; 0xf00
 4e4:	5f726274 	svcpl	0x00726274
 4e8:	5f657470 	svcpl	0x00657470
 4ec:	73657567 	cmnvc	r5, #432013312	; 0x19c00000
 4f0:	6d003174 	stfvss	f3, [r0, #-464]	; 0xfffffe30
 4f4:	00726961 	rsbseq	r6, r2, r1, ror #18
 4f8:	656d6974 	strbvs	r6, [sp, #-2420]!	; 0x974
 4fc:	6e695f72 	mcrvs	15, 3, r5, cr9, cr2, {3}
 500:	74007469 	strvc	r7, [r0], #-1129	; 0x469
 504:	72656d69 	rsbvc	r6, r5, #6720	; 0x1a40
 508:	6700632e 	strvs	r6, [r0, -lr, lsr #6]
 50c:	632e6369 	teqvs	lr, #-1543503871	; 0xa4000001
 510:	63696700 	cmnvs	r9, #0
 514:	696e695f 	stmdbvs	lr!, {r0, r1, r2, r3, r4, r6, r8, fp, sp, lr}^
 518:	61620074 	smcvs	8196	; 0x2004
 51c:	6369675f 	cmnvs	r9, #24903680	; 0x17c0000
 520:	69670063 	stmdbvs	r7!, {r0, r1, r5, r6}^
 524:	75645f63 	strbvc	r5, [r4, #-3939]!	; 0xf63
 528:	725f706d 	subsvc	r7, pc, #109	; 0x6d
 52c:	73696765 	cmnvc	r9, #26476544	; 0x1940000
 530:	73726574 	cmnvc	r2, #486539264	; 0x1d000000
 534:	5f616200 	svcpl	0x00616200
 538:	68636967 	stmdavs	r3!, {r0, r1, r2, r5, r6, r8, fp, sp, lr}^
 53c:	5f616200 	svcpl	0x00616200
 540:	64636967 	strbtvs	r6, [r3], #-2407	; 0x967
 544:	5f616200 	svcpl	0x00616200
 548:	76636967 	strbtvc	r6, [r3], -r7, ror #18
 54c:	64696d00 	strbtvs	r6, [r9], #-3328	; 0xd00
 550:	61760072 	cmnvs	r6, r2, ror r0
 554:	0065756c 	rsbeq	r7, r5, ip, ror #10
 558:	675f6162 	ldrbvs	r6, [pc, -r2, ror #2]
 55c:	69766369 	ldmdbvs	r6!, {r0, r3, r5, r6, r8, r9, sp, lr}^
 560:	73616200 	cmnvc	r1, #0
 564:	64646165 	strbtvs	r6, [r4], #-357	; 0x165
 568:	6e690072 	mcrvs	0, 3, r0, cr9, cr2, {3}
 56c:	72726574 	rsbsvc	r6, r2, #486539264	; 0x1d000000
 570:	2e747075 	mrccs	0, 3, r7, cr4, cr5, {3}
 574:	Address 0x00000574 is out of bounds.


Disassembly of section .debug_frame:

00000000 <.debug_frame>:
   0:	0000000c 	andeq	r0, r0, ip
   4:	ffffffff 			; <UNDEFINED> instruction: 0xffffffff
   8:	7c020001 	stcvc	0, cr0, [r2], {1}
   c:	000d0c0e 	andeq	r0, sp, lr, lsl #24
  10:	00000014 	andeq	r0, r0, r4, lsl r0
  14:	00000000 	andeq	r0, r0, r0
  18:	f0000340 			; <UNDEFINED> instruction: 0xf0000340
  1c:	00000034 	andeq	r0, r0, r4, lsr r0
  20:	83080e44 	movwhi	r0, #36420	; 0x8e44
  24:	00018e02 	andeq	r8, r1, r2, lsl #28
  28:	00000018 	andeq	r0, r0, r8, lsl r0
  2c:	00000000 	andeq	r0, r0, r0
  30:	f0000374 			; <UNDEFINED> instruction: 0xf0000374
  34:	0000007c 	andeq	r0, r0, ip, ror r0
  38:	83100e42 	tsthi	r0, #1056	; 0x420
  3c:	85038404 	strhi	r8, [r3, #-1028]	; 0x404
  40:	00018e02 	andeq	r8, r1, r2, lsl #28
  44:	0000000c 	andeq	r0, r0, ip
  48:	ffffffff 			; <UNDEFINED> instruction: 0xffffffff
  4c:	7c020001 	stcvc	0, cr0, [r2], {1}
  50:	000d0c0e 	andeq	r0, sp, lr, lsl #24
  54:	0000000c 	andeq	r0, r0, ip
  58:	00000044 	andeq	r0, r0, r4, asr #32
  5c:	f00003f0 			; <UNDEFINED> instruction: 0xf00003f0
  60:	00000024 	andeq	r0, r0, r4, lsr #32
  64:	0000000c 	andeq	r0, r0, ip
  68:	00000044 	andeq	r0, r0, r4, asr #32
  6c:	f0000414 			; <UNDEFINED> instruction: 0xf0000414
  70:	00000064 	andeq	r0, r0, r4, rrx
  74:	0000000c 	andeq	r0, r0, ip
  78:	00000044 	andeq	r0, r0, r4, asr #32
  7c:	f0000478 			; <UNDEFINED> instruction: 0xf0000478
  80:	00000050 	andeq	r0, r0, r0, asr r0
  84:	0000000c 	andeq	r0, r0, ip
  88:	00000044 	andeq	r0, r0, r4, asr #32
  8c:	f00004c8 			; <UNDEFINED> instruction: 0xf00004c8
  90:	00000034 	andeq	r0, r0, r4, lsr r0
  94:	0000000c 	andeq	r0, r0, ip
  98:	00000044 	andeq	r0, r0, r4, asr #32
  9c:	f00004fc 			; <UNDEFINED> instruction: 0xf00004fc
  a0:	00000024 	andeq	r0, r0, r4, lsr #32
  a4:	00000014 	andeq	r0, r0, r4, lsl r0
  a8:	00000044 	andeq	r0, r0, r4, asr #32
  ac:	f0000520 			; <UNDEFINED> instruction: 0xf0000520
  b0:	00000068 	andeq	r0, r0, r8, rrx
  b4:	84040e44 	strhi	r0, [r4], #-3652	; 0xe44
  b8:	00000001 	andeq	r0, r0, r1
  bc:	0000000c 	andeq	r0, r0, ip
  c0:	00000044 	andeq	r0, r0, r4, asr #32
  c4:	f0000588 			; <UNDEFINED> instruction: 0xf0000588
  c8:	00000078 	andeq	r0, r0, r8, ror r0
  cc:	00000014 	andeq	r0, r0, r4, lsl r0
  d0:	00000044 	andeq	r0, r0, r4, asr #32
  d4:	f0000600 			; <UNDEFINED> instruction: 0xf0000600
  d8:	000000b0 	strheq	r0, [r0], -r0	; <UNPREDICTABLE>
  dc:	84040e42 	strhi	r0, [r4], #-3650	; 0xe42
  e0:	00000001 	andeq	r0, r0, r1
  e4:	0000000c 	andeq	r0, r0, ip
  e8:	00000044 	andeq	r0, r0, r4, asr #32
  ec:	f00006b0 			; <UNDEFINED> instruction: 0xf00006b0
  f0:	00000040 	andeq	r0, r0, r0, asr #32
  f4:	0000000c 	andeq	r0, r0, ip
  f8:	ffffffff 			; <UNDEFINED> instruction: 0xffffffff
  fc:	7c020001 	stcvc	0, cr0, [r2], {1}
 100:	000d0c0e 	andeq	r0, sp, lr, lsl #24
 104:	00000018 	andeq	r0, r0, r8, lsl r0
 108:	000000f4 	strdeq	r0, [r0], -r4
 10c:	f00006f0 			; <UNDEFINED> instruction: 0xf00006f0
 110:	000000c0 	andeq	r0, r0, r0, asr #1
 114:	83100e42 	tsthi	r0, #1056	; 0x420
 118:	85038404 	strhi	r8, [r3, #-1028]	; 0x404
 11c:	00018e02 	andeq	r8, r1, r2, lsl #28
 120:	00000018 	andeq	r0, r0, r8, lsl r0
 124:	000000f4 	strdeq	r0, [r0], -r4
 128:	f00007b0 			; <UNDEFINED> instruction: 0xf00007b0
 12c:	00000088 	andeq	r0, r0, r8, lsl #1
 130:	83100e42 	tsthi	r0, #1056	; 0x420
 134:	85038404 	strhi	r8, [r3, #-1028]	; 0x404
 138:	00018e02 	andeq	r8, r1, r2, lsl #28
 13c:	0000000c 	andeq	r0, r0, ip
 140:	000000f4 	strdeq	r0, [r0], -r4
 144:	f0000838 			; <UNDEFINED> instruction: 0xf0000838
 148:	00000004 	andeq	r0, r0, r4
 14c:	00000014 	andeq	r0, r0, r4, lsl r0
 150:	000000f4 	strdeq	r0, [r0], -r4
 154:	f000083c 			; <UNDEFINED> instruction: 0xf000083c
 158:	0000000c 	andeq	r0, r0, ip
 15c:	83080e42 	movwhi	r0, #36418	; 0x8e42
 160:	00018e02 	andeq	r8, r1, r2, lsl #28
 164:	0000001c 	andeq	r0, r0, ip, lsl r0
 168:	000000f4 	strdeq	r0, [r0], -r4
 16c:	f0000848 			; <UNDEFINED> instruction: 0xf0000848
 170:	00000110 	andeq	r0, r0, r0, lsl r1
 174:	83180e42 	tsthi	r8, #1056	; 0x420
 178:	85058406 	strhi	r8, [r5, #-1030]	; 0x406
 17c:	87038604 	strhi	r8, [r3, -r4, lsl #12]
 180:	00018e02 	andeq	r8, r1, r2, lsl #28
 184:	00000018 	andeq	r0, r0, r8, lsl r0
 188:	000000f4 	strdeq	r0, [r0], -r4
 18c:	f0000958 			; <UNDEFINED> instruction: 0xf0000958
 190:	00000074 	andeq	r0, r0, r4, ror r0
 194:	83100e42 	tsthi	r0, #1056	; 0x420
 198:	85038404 	strhi	r8, [r3, #-1028]	; 0x404
 19c:	00018e02 	andeq	r8, r1, r2, lsl #28
 1a0:	00000014 	andeq	r0, r0, r4, lsl r0
 1a4:	000000f4 	strdeq	r0, [r0], -r4
 1a8:	f00009cc 			; <UNDEFINED> instruction: 0xf00009cc
 1ac:	00000030 	andeq	r0, r0, r0, lsr r0
 1b0:	84080e44 	strhi	r0, [r8], #-3652	; 0xe44
 1b4:	00018e02 	andeq	r8, r1, r2, lsl #28
 1b8:	00000014 	andeq	r0, r0, r4, lsl r0
 1bc:	000000f4 	strdeq	r0, [r0], -r4
 1c0:	f00009fc 			; <UNDEFINED> instruction: 0xf00009fc
 1c4:	00000018 	andeq	r0, r0, r8, lsl r0
 1c8:	83080e44 	movwhi	r0, #36420	; 0x8e44
 1cc:	00018e02 	andeq	r8, r1, r2, lsl #28
 1d0:	00000014 	andeq	r0, r0, r4, lsl r0
 1d4:	000000f4 	strdeq	r0, [r0], -r4
 1d8:	f0000a14 			; <UNDEFINED> instruction: 0xf0000a14
 1dc:	00000048 	andeq	r0, r0, r8, asr #32
 1e0:	83080e42 	movwhi	r0, #36418	; 0x8e42
 1e4:	00018e02 	andeq	r8, r1, r2, lsl #28
 1e8:	0000000c 	andeq	r0, r0, ip
 1ec:	ffffffff 			; <UNDEFINED> instruction: 0xffffffff
 1f0:	7c020001 	stcvc	0, cr0, [r2], {1}
 1f4:	000d0c0e 	andeq	r0, sp, lr, lsl #24
 1f8:	00000014 	andeq	r0, r0, r4, lsl r0
 1fc:	000001e8 	andeq	r0, r0, r8, ror #3
 200:	f0000a5c 			; <UNDEFINED> instruction: 0xf0000a5c
 204:	00000018 	andeq	r0, r0, r8, lsl r0
 208:	83080e44 	movwhi	r0, #36420	; 0x8e44
 20c:	00018e02 	andeq	r8, r1, r2, lsl #28
 210:	0000000c 	andeq	r0, r0, ip
 214:	ffffffff 			; <UNDEFINED> instruction: 0xffffffff
 218:	7c020001 	stcvc	0, cr0, [r2], {1}
 21c:	000d0c0e 	andeq	r0, sp, lr, lsl #24
 220:	0000000c 	andeq	r0, r0, ip
 224:	00000210 	andeq	r0, r0, r0, lsl r2
 228:	f0000a74 			; <UNDEFINED> instruction: 0xf0000a74
 22c:	00000028 	andeq	r0, r0, r8, lsr #32
 230:	0000000c 	andeq	r0, r0, ip
 234:	00000210 	andeq	r0, r0, r0, lsl r2
 238:	f0000a9c 			; <UNDEFINED> instruction: 0xf0000a9c
 23c:	00000010 	andeq	r0, r0, r0, lsl r0
 240:	0000000c 	andeq	r0, r0, ip
 244:	00000210 	andeq	r0, r0, r0, lsl r2
 248:	f0000aac 			; <UNDEFINED> instruction: 0xf0000aac
 24c:	0000005c 	andeq	r0, r0, ip, asr r0
 250:	00000014 	andeq	r0, r0, r4, lsl r0
 254:	00000210 	andeq	r0, r0, r0, lsl r2
 258:	f0000b08 			; <UNDEFINED> instruction: 0xf0000b08
 25c:	0000001c 	andeq	r0, r0, ip, lsl r0
 260:	84080e42 	strhi	r0, [r8], #-3650	; 0xe42
 264:	00018e02 	andeq	r8, r1, r2, lsl #28
 268:	0000000c 	andeq	r0, r0, ip
 26c:	ffffffff 			; <UNDEFINED> instruction: 0xffffffff
 270:	7c020001 	stcvc	0, cr0, [r2], {1}
 274:	000d0c0e 	andeq	r0, sp, lr, lsl #24
 278:	0000000c 	andeq	r0, r0, ip
 27c:	00000268 	andeq	r0, r0, r8, ror #4
 280:	f0000b24 			; <UNDEFINED> instruction: 0xf0000b24
 284:	00000018 	andeq	r0, r0, r8, lsl r0
 288:	0000000c 	andeq	r0, r0, ip
 28c:	00000268 	andeq	r0, r0, r8, ror #4
 290:	f0000b3c 			; <UNDEFINED> instruction: 0xf0000b3c
 294:	00000018 	andeq	r0, r0, r8, lsl r0
 298:	00000024 	andeq	r0, r0, r4, lsr #32
 29c:	00000268 	andeq	r0, r0, r8, ror #4
 2a0:	f0000b54 			; <UNDEFINED> instruction: 0xf0000b54
 2a4:	000000ec 	andeq	r0, r0, ip, ror #1
 2a8:	84240e42 	strthi	r0, [r4], #-3650	; 0xe42
 2ac:	86088509 	strhi	r8, [r8], -r9, lsl #10
 2b0:	88068707 	stmdahi	r6, {r0, r1, r2, r8, r9, sl, pc}
 2b4:	8a048905 	bhi	1226d0 <PHYS_OFFSET-0x7fedd930>
 2b8:	8e028b03 	vmlahi.f64	d8, d2, d3
 2bc:	300e4401 	andcc	r4, lr, r1, lsl #8
 2c0:	00000018 	andeq	r0, r0, r8, lsl r0
 2c4:	00000268 	andeq	r0, r0, r8, ror #4
 2c8:	f0000c40 			; <UNDEFINED> instruction: 0xf0000c40
 2cc:	000000a0 	andeq	r0, r0, r0, lsr #1
 2d0:	84100e44 	ldrhi	r0, [r0], #-3652	; 0xe44
 2d4:	86038504 	strhi	r8, [r3], -r4, lsl #10
 2d8:	00018702 	andeq	r8, r1, r2, lsl #14
 2dc:	00000020 	andeq	r0, r0, r0, lsr #32
 2e0:	00000268 	andeq	r0, r0, r8, ror #4
 2e4:	f0000ce0 			; <UNDEFINED> instruction: 0xf0000ce0
 2e8:	000000f4 	strdeq	r0, [r0], -r4
 2ec:	83200e44 	teqhi	r0, #1088	; 0x440
 2f0:	85078408 	strhi	r8, [r7, #-1032]	; 0x408
 2f4:	87058606 	strhi	r8, [r5, -r6, lsl #12]
 2f8:	8a038804 	bhi	e2310 <PHYS_OFFSET-0x7ff1dcf0>
 2fc:	00018e02 	andeq	r8, r1, r2, lsl #28
 300:	0000000c 	andeq	r0, r0, ip
 304:	00000268 	andeq	r0, r0, r8, ror #4
 308:	f0000dd4 			; <UNDEFINED> instruction: 0xf0000dd4
 30c:	00000024 	andeq	r0, r0, r4, lsr #32
 310:	00000024 	andeq	r0, r0, r4, lsr #32
 314:	00000268 	andeq	r0, r0, r8, ror #4
 318:	f0000df8 			; <UNDEFINED> instruction: 0xf0000df8
 31c:	000001b4 			; <UNDEFINED> instruction: 0x000001b4
 320:	84200e42 	strthi	r0, [r0], #-3650	; 0xe42
 324:	86078508 	strhi	r8, [r7], -r8, lsl #10
 328:	88058706 	stmdahi	r5, {r1, r2, r8, r9, sl, pc}
 32c:	8a038904 	bhi	e2744 <PHYS_OFFSET-0x7ff1d8bc>
 330:	44018e02 	strmi	r8, [r1], #-3586	; 0xe02
 334:	0000300e 	andeq	r3, r0, lr
 338:	00000024 	andeq	r0, r0, r4, lsr #32
 33c:	00000268 	andeq	r0, r0, r8, ror #4
 340:	f0000fac 			; <UNDEFINED> instruction: 0xf0000fac
 344:	000003d0 	ldrdeq	r0, [r0], -r0	; <UNPREDICTABLE>
 348:	83280e42 	teqhi	r8, #1056	; 0x420
 34c:	8509840a 	strhi	r8, [r9, #-1034]	; 0x40a
 350:	87078608 	strhi	r8, [r7, -r8, lsl #12]
 354:	89058806 	stmdbhi	r5, {r1, r2, fp, pc}
 358:	8b038a04 	blhi	e2b70 <PHYS_OFFSET-0x7ff1d490>
 35c:	00018e02 	andeq	r8, r1, r2, lsl #28
 360:	0000000c 	andeq	r0, r0, ip
 364:	ffffffff 			; <UNDEFINED> instruction: 0xffffffff
 368:	7c020001 	stcvc	0, cr0, [r2], {1}
 36c:	000d0c0e 	andeq	r0, sp, lr, lsl #24
 370:	0000000c 	andeq	r0, r0, ip
 374:	00000360 	andeq	r0, r0, r0, ror #6
 378:	f000137c 			; <UNDEFINED> instruction: 0xf000137c
 37c:	00000008 	andeq	r0, r0, r8
 380:	0000000c 	andeq	r0, r0, ip
 384:	ffffffff 			; <UNDEFINED> instruction: 0xffffffff
 388:	7c020001 	stcvc	0, cr0, [r2], {1}
 38c:	000d0c0e 	andeq	r0, sp, lr, lsl #24
 390:	00000018 	andeq	r0, r0, r8, lsl r0
 394:	00000380 	andeq	r0, r0, r0, lsl #7
 398:	f0001384 			; <UNDEFINED> instruction: 0xf0001384
 39c:	00000150 	andeq	r0, r0, r0, asr r1
 3a0:	83100e42 	tsthi	r0, #1056	; 0x420
 3a4:	85038404 	strhi	r8, [r3, #-1028]	; 0x404
 3a8:	00018e02 	andeq	r8, r1, r2, lsl #28
 3ac:	00000014 	andeq	r0, r0, r4, lsl r0
 3b0:	00000380 	andeq	r0, r0, r0, lsl #7
 3b4:	f00014d4 			; <UNDEFINED> instruction: 0xf00014d4
 3b8:	00000010 	andeq	r0, r0, r0, lsl r0
 3bc:	83080e42 	movwhi	r0, #36418	; 0x8e42
 3c0:	00018e02 	andeq	r8, r1, r2, lsl #28
 3c4:	0000000c 	andeq	r0, r0, ip
 3c8:	ffffffff 			; <UNDEFINED> instruction: 0xffffffff
 3cc:	7c020001 	stcvc	0, cr0, [r2], {1}
 3d0:	000d0c0e 	andeq	r0, sp, lr, lsl #24
 3d4:	0000000c 	andeq	r0, r0, ip
 3d8:	000003c4 	andeq	r0, r0, r4, asr #7
 3dc:	f00014e4 			; <UNDEFINED> instruction: 0xf00014e4
 3e0:	00000004 	andeq	r0, r0, r4

Disassembly of section .debug_ranges:

00000000 <.debug_ranges>:
   0:	0000003c 	andeq	r0, r0, ip, lsr r0
   4:	00000040 	andeq	r0, r0, r0, asr #32
   8:	00000044 	andeq	r0, r0, r4, asr #32
   c:	00000058 	andeq	r0, r0, r8, asr r0
  10:	0000005c 	andeq	r0, r0, ip, asr r0
  14:	00000060 	andeq	r0, r0, r0, rrx
	...
  20:	0000003c 	andeq	r0, r0, ip, lsr r0
  24:	00000040 	andeq	r0, r0, r0, asr #32
  28:	00000044 	andeq	r0, r0, r4, asr #32
  2c:	00000058 	andeq	r0, r0, r8, asr r0
  30:	0000005c 	andeq	r0, r0, ip, asr r0
  34:	00000060 	andeq	r0, r0, r0, rrx
	...
  40:	00000058 	andeq	r0, r0, r8, asr r0
  44:	0000005c 	andeq	r0, r0, ip, asr r0
  48:	00000060 	andeq	r0, r0, r0, rrx
  4c:	00000064 	andeq	r0, r0, r4, rrx
  50:	00000084 	andeq	r0, r0, r4, lsl #1
  54:	00000088 	andeq	r0, r0, r8, lsl #1
	...
  60:	00000058 	andeq	r0, r0, r8, asr r0
  64:	0000005c 	andeq	r0, r0, ip, asr r0
  68:	00000060 	andeq	r0, r0, r0, rrx
  6c:	00000064 	andeq	r0, r0, r4, rrx
  70:	00000084 	andeq	r0, r0, r4, lsl #1
  74:	00000088 	andeq	r0, r0, r8, lsl #1
	...
  80:	00000040 	andeq	r0, r0, r0, asr #32
  84:	00000048 	andeq	r0, r0, r8, asr #32
  88:	0000004c 	andeq	r0, r0, ip, asr #32
  8c:	00000050 	andeq	r0, r0, r0, asr r0
  90:	00000058 	andeq	r0, r0, r8, asr r0
  94:	0000005c 	andeq	r0, r0, ip, asr r0
  98:	00000060 	andeq	r0, r0, r0, rrx
  9c:	00000064 	andeq	r0, r0, r4, rrx
	...
  a8:	000000e0 	andeq	r0, r0, r0, ror #1
  ac:	000000e4 	andeq	r0, r0, r4, ror #1
  b0:	000000e8 	andeq	r0, r0, r8, ror #1
  b4:	000000f0 	strdeq	r0, [r0], -r0	; <UNPREDICTABLE>
	...
  c0:	000006b0 			; <UNDEFINED> instruction: 0x000006b0
  c4:	000006b8 			; <UNDEFINED> instruction: 0x000006b8
  c8:	000006bc 			; <UNDEFINED> instruction: 0x000006bc
  cc:	000006c4 	andeq	r0, r0, r4, asr #13
	...
  d8:	000006f8 	strdeq	r0, [r0], -r8
  dc:	00000700 	andeq	r0, r0, r0, lsl #14
  e0:	00000708 	andeq	r0, r0, r8, lsl #14
  e4:	0000070c 	andeq	r0, r0, ip, lsl #14
	...
  f0:	00000788 	andeq	r0, r0, r8, lsl #15
  f4:	00000790 	muleq	r0, r0, r7
  f8:	00000794 	muleq	r0, r4, r7
  fc:	00000798 	muleq	r0, r8, r7
	...
 108:	00000034 	andeq	r0, r0, r4, lsr r0
 10c:	0000011c 	andeq	r0, r0, ip, lsl r1
 110:	00000120 	andeq	r0, r0, r0, lsr #2
 114:	00000150 	andeq	r0, r0, r0, asr r1
	...
